(dp0
S'nurseri'
p1
(dp2
S'valence-SD'
p3
F2.3
sS'arousal-SD'
p4
F2.74
sS'dominance-SD'
p5
F2.23
sS'arousal-mean'
p6
F4.04
sS'valence-mean'
p7
F5.73
sS'dominance-mean'
p8
F5.18
sS'word-freq'
p9
F13.0
ssS'savior'
p10
(dp11
g3
F1.56
sg4
F3.01
sg5
F2.18
sg6
F5.8
sg7
F7.73
sg8
F6.64
sg9
F6.0
ssS'corps'
p12
(dp13
g3
F1.48
sg4
F2.94
sg5
F2.44
sg6
F4.74
sg7
F2.18
sg8
F3.59
sg9
F7.0
ssS'messi'
p14
(dp15
g3
F1.73
sg4
F2.37
sg5
F2.15
sg6
F3.34
sg7
F3.15
sg8
F4.75
sg9
F3.0
ssS'hamburg'
p16
(dp17
g3
F1.5
sg4
F2.14
sg5
F1.21
sg6
F4.55
sg7
F6.27
sg8
F5.32
sg9
F6.0
ssS'dollar'
p18
(dp19
g3
F1.72
sg4
F2.67
sg5
F2.42
sg6
F6.07
sg7
F7.47
sg8
F6.33
sg9
F46.0
ssS'foul'
p20
(dp21
g3
F1.52
sg4
F2.23
sg5
F1.89
sg6
F4.93
sg7
F2.81
sg8
F4.51
sg9
F4.0
ssS'month'
p22
(dp23
g3
F1.09
sg4
F1.77
sg5
F1.14
sg6
F4.03
sg7
F5.15
sg8
F4.85
sg9
F130.0
ssS'alien'
p24
(dp25
g3
F1.82
sg4
F2.15
sg5
F2.07
sg6
F5.45
sg7
F5.6
sg8
F4.64
sg9
F16.0
ssS'pervert'
p26
(dp27
g3
F2.12
sg4
F2.61
sg5
F2.83
sg6
F6.26
sg7
F2.79
sg8
F4.72
sg9
F1.0
ssS'sleep'
p28
(dp29
g3
F1.77
sg4
F2.66
sg5
F2.41
sg6
F2.8
sg7
F7.2
sg8
F5.41
sg9
F65.0
ssS'gossip'
p30
(dp31
g3
F2.33
sg4
F2.38
sg5
F2.26
sg6
F5.74
sg7
F3.48
sg8
F3.57
sg9
F13.0
ssS'chair'
p32
(dp33
g3
F0.98
sg4
F1.77
sg5
F1.6
sg6
F3.15
sg7
F5.08
sg8
F4.56
sg9
F66.0
ssS'allergi'
p34
(dp35
g3
F1.64
sg4
F2.34
sg5
F1.77
sg6
F4.64
sg7
F3.07
sg8
F3.21
sg9
F1.0
ssS'hate'
p36
(dp37
g3
F1.72
sg4
F2.56
sg5
F2.95
sg6
F6.95
sg7
F2.12
sg8
F5.05
sg9
F42.0
ssS'milk'
p38
(dp39
g3
F2.16
sg4
F2.57
sg5
F1.5
sg6
F3.68
sg7
F5.95
sg8
F5.83
sg9
F49.0
ssS'seasick'
p40
(dp41
g3
F1.2
sg4
F2.88
sg5
F2.39
sg6
F5.8
sg7
F2.05
sg8
F3.41
sg9
F0.0
ssS'gymnast'
p42
(dp43
g3
F1.79
sg4
F2.2
sg5
F1.79
sg6
F5.02
sg7
F6.35
sg8
F5.31
sg9
F1.0
ssS'white'
p44
(dp45
g3
F1.59
sg4
F2.14
sg5
F1.73
sg6
F4.37
sg7
F6.47
sg8
F5.98
sg9
F365.0
ssS'father'
p46
(dp47
g3
F2.2
sg4
F2.6
sg5
F2.89
sg6
F5.92
sg7
F7.08
sg8
F5.63
sg9
F383.0
ssS'venom'
p48
(dp49
g3
F1.81
sg4
F2.44
sg5
F2.23
sg6
F6.08
sg7
F2.68
sg8
F3.94
sg9
F2.0
ssS'humili'
p50
(dp51
g3
F1.34
sg4
F2.42
sg5
F1.94
sg6
F6.14
sg7
F2.24
sg8
F2.6
sg9
F0.0
ssS'robber'
p52
(dp53
g3
F1.69
sg4
F2.72
sg5
F2.38
sg6
F5.62
sg7
F2.61
sg8
F3.62
sg9
F2.0
ssS'trauma'
p54
(dp55
g3
F1.49
sg4
F2.45
sg5
F1.87
sg6
F6.33
sg7
F2.1
sg8
F2.84
sg9
F1.0
ssS'pride'
p56
(dp57
g3
F2.11
sg4
F2.48
sg5
F2.15
sg6
F5.83
sg7
F7.0
sg8
F7.06
sg9
F42.0
ssS'stove'
p58
(dp59
g3
F1.69
sg4
F2.14
sg5
F1.87
sg6
F4.51
sg7
F4.98
sg8
F5.36
sg9
F15.0
ssS'hatr'
p60
(dp61
g3
F1.92
sg4
F2.56
sg5
F2.76
sg6
F6.66
sg7
F1.98
sg8
F4.3
sg9
F20.0
ssS'street'
p62
(dp63
g3
F0.72
sg4
F1.87
sg5
F1.21
sg6
F3.39
sg7
F5.22
sg8
F4.81
sg9
F244.0
ssS'garden'
p64
(dp65
g3
F1.74
sg4
F2.35
sg5
F1.71
sg6
F4.39
sg7
F6.71
sg8
F6.02
sg9
F60.0
ssS'song'
p66
(dp67
g3
F1.97
sg4
F2.42
sg5
F2.12
sg6
F6.07
sg7
F7.1
sg8
F5.85
sg9
F70.0
ssS'fals'
p68
(dp69
g3
F1.4
sg4
F2.09
sg5
F1.56
sg6
F3.43
sg7
F3.27
sg8
F4.1
sg9
F29.0
ssS'blase'
p70
(dp71
g3
F1.16
sg4
F1.76
sg5
F1.44
sg6
F3.94
sg7
F4.89
sg8
F4.57
sg9
F7.0
ssS'woman'
p72
(dp73
g3
F1.76
sg4
F2.59
sg5
F1.52
sg6
F5.32
sg7
F6.64
sg8
F6.33
sg9
F224.0
ssS'fat'
p74
(dp75
g3
F1.92
sg4
F2.8
sg5
F3.06
sg6
F4.81
sg7
F2.28
sg8
F4.47
sg9
F60.0
ssS'tenni'
p76
(dp77
g3
F1.97
sg4
F2.6
sg5
F2.12
sg6
F4.61
sg7
F6.02
sg8
F5.61
sg9
F15.0
ssS'arous'
p78
(dp79
g3
F1.0
sg4
F2.7
sg5
F1.97
sg6
F6.63
sg7
F7.97
sg8
F6.14
sg9
F20.0
ssS'disast'
p80
(dp81
g3
F1.13
sg4
F2.7
sg5
F2.42
sg6
F6.33
sg7
F1.73
sg8
F3.52
sg9
F26.0
ssS'failur'
p82
(dp83
g3
F1.07
sg4
F2.81
sg5
F2.18
sg6
F4.95
sg7
F1.7
sg8
F2.4
sg9
F89.0
ssS'cook'
p84
(dp85
g3
F1.89
sg4
F1.96
sg5
F1.49
sg6
F4.44
sg7
F6.16
sg8
F5.14
sg9
F47.0
ssS'affect'
p86
(dp87
g3
F0.86
sg4
F2.75
sg5
F2.22
sg6
F6.21
sg7
F8.39
sg8
F6.08
sg9
F18.0
ssS'wick'
p88
(dp89
g3
F2.37
sg4
F2.44
sg5
F2.65
sg6
F6.09
sg7
F2.96
sg8
F4.36
sg9
F9.0
ssS'disturb'
p90
(dp91
g3
F2.0
sg4
F2.39
sg5
F1.9
sg6
F5.8
sg7
F3.66
sg8
F4.55
sg9
F10.0
ssS'heaven'
p92
(dp93
g3
F2.39
sg4
F3.2
sg5
F2.56
sg6
F5.61
sg7
F7.3
sg8
F6.15
sg9
F43.0
ssS'magic'
p94
(dp95
g3
F1.64
sg4
F2.36
sg5
F2.19
sg6
F5.95
sg7
F7.46
sg8
F5.73
sg9
F12.0
ssS'nectar'
p96
(dp97
g3
F1.53
sg4
F2.48
sg5
F2.06
sg6
F3.89
sg7
F6.9
sg8
F4.54
sg9
F3.0
ssS'stiff'
p98
(dp99
g3
F1.97
sg4
F2.41
sg5
F2.04
sg6
F4.02
sg7
F4.68
sg8
F4.93
sg9
F21.0
ssS'gender'
p100
(dp101
g3
F1.55
sg4
F2.13
sg5
F1.84
sg6
F4.38
sg7
F5.73
sg8
F5.6
sg9
F2.0
ssS'hous'
p102
(dp103
g3
F1.72
sg4
F2.41
sg5
F2.12
sg6
F4.56
sg7
F7.26
sg8
F6.08
sg9
F591.0
ssS'brother'
p104
(dp105
g3
F2.17
sg4
F2.68
sg5
F2.31
sg6
F4.71
sg7
F7.11
sg8
F5.12
sg9
F73.0
ssS'prairi'
p106
(dp107
g3
F1.43
sg4
F2.17
sg5
F2.13
sg6
F3.41
sg7
F5.75
sg8
F4.62
sg9
F21.0
ssS'anxious'
p108
(dp109
g3
F1.98
sg4
F1.81
sg5
F1.82
sg6
F6.92
sg7
F4.81
sg8
F5.33
sg9
F29.0
ssS'item'
p110
(dp111
g3
F0.86
sg4
F2.08
sg5
F1.67
sg6
F3.24
sg7
F5.26
sg8
F5.26
sg9
F54.0
ssS'red'
p112
(dp113
g3
F1.61
sg4
F2.04
sg5
F1.59
sg6
F5.29
sg7
F6.41
sg8
F5.78
sg9
F197.0
ssS'whore'
p114
(dp115
g3
F2.11
sg4
F2.93
sg5
F2.73
sg6
F5.85
sg7
F2.3
sg8
F4.61
sg9
F2.0
ssS'plain'
p116
(dp117
g3
F1.46
sg4
F2.05
sg5
F1.68
sg6
F3.52
sg7
F4.39
sg8
F4.71
sg9
F48.0
ssS'quick'
p118
(dp119
g3
F1.61
sg4
F1.78
sg5
F1.91
sg6
F6.57
sg7
F6.64
sg8
F6.57
sg9
F68.0
ssS'traitor'
p120
(dp121
g3
F1.69
sg4
F2.47
sg5
F2.71
sg6
F5.78
sg7
F2.22
sg8
F4.61
sg9
F2.0
ssS'obsess'
p122
(dp123
g3
F2.13
sg4
F2.13
sg5
F2.38
sg6
F6.41
sg7
F4.52
sg8
F4.77
sg9
F5.0
ssS'triumph'
p124
(dp125
g3
F1.83
sg4
F2.6
sg5
F2.2
sg6
F5.78
sg7
F7.8
sg8
F6.98
sg9
F22.0
ssS'enjoy'
p126
(dp127
g3
F1.2
sg4
F2.72
sg5
F1.77
sg6
F5.2
sg7
F7.8
sg8
F6.46
sg9
F21.0
ssS'hinder'
p128
(dp129
g3
F1.42
sg4
F2.01
sg5
F1.54
sg6
F4.12
sg7
F3.81
sg8
F4.21
sg9
F0.0
ssS'rusti'
p130
(dp131
g3
F1.47
sg4
F2.16
sg5
F1.62
sg6
F3.77
sg7
F3.86
sg8
F4.53
sg9
F8.0
ssS'brave'
p132
(dp133
g3
F1.64
sg4
F2.45
sg5
F1.86
sg6
F6.15
sg7
F7.15
sg8
F7.22
sg9
F24.0
ssS'regret'
p134
(dp135
g3
F1.42
sg4
F2.32
sg5
F2.52
sg6
F5.74
sg7
F2.28
sg8
F3.43
sg9
F1.0
ssS'natur'
p136
(dp137
g3
F1.37
sg4
F2.51
sg5
F2.72
sg6
F4.37
sg7
F7.65
sg8
F4.95
sg9
F191.0
ssS'orgasm'
p138
(dp139
g3
F1.31
sg4
F1.45
sg5
F2.18
sg6
F8.1
sg7
F8.32
sg8
F6.83
sg9
F7.0
ssS'hors'
p140
(dp141
g3
F1.55
sg4
F2.17
sg5
F1.6
sg6
F3.89
sg7
F5.89
sg8
F4.67
sg9
F117.0
ssS'paralysi'
p142
(dp143
g3
F1.44
sg4
F2.83
sg5
F1.82
sg6
F4.73
sg7
F1.98
sg8
F2.56
sg9
F6.0
ssS'manur'
p144
(dp145
g3
F1.74
sg4
F2.09
sg5
F1.36
sg6
F4.17
sg7
F3.1
sg8
F4.67
sg9
F6.0
ssS'earth'
p146
(dp147
g3
F1.67
sg4
F2.49
sg5
F2.3
sg6
F4.24
sg7
F7.15
sg8
F5.61
sg9
F150.0
ssS'blasphemi'
p148
(dp149
g3
F2.26
sg4
F2.34
sg5
F1.59
sg6
F4.93
sg7
F3.75
sg8
F4.75
sg9
F4.0
ssS'helpless'
p150
(dp151
g3
F1.42
sg4
F2.52
sg5
F1.83
sg6
F5.34
sg7
F2.2
sg8
F2.27
sg9
F21.0
ssS'bake'
p152
(dp153
g3
F1.71
sg4
F2.3
sg5
F1.88
sg6
F5.1
sg7
F6.17
sg8
F5.49
sg9
F12.0
ssS'odd'
p154
(dp155
g3
F2.04
sg4
F2.46
sg5
F1.89
sg6
F4.27
sg7
F4.82
sg8
F4.77
sg9
F44.0
ssS'rough'
p156
(dp157
g3
F2.0
sg4
F2.04
sg5
F1.7
sg6
F5.33
sg7
F4.74
sg8
F4.81
sg9
F41.0
ssS'obey'
p158
(dp159
g3
F1.88
sg4
F1.72
sg5
F2.4
sg6
F4.23
sg7
F4.52
sg8
F4.26
sg9
F8.0
ssS'blue'
p160
(dp161
g3
F1.78
sg4
F2.2
sg5
F1.64
sg6
F4.31
sg7
F6.76
sg8
F5.63
sg9
F143.0
ssS'rainbow'
p162
(dp163
g3
F1.23
sg4
F2.88
sg5
F2.37
sg6
F4.64
sg7
F8.14
sg8
F4.72
sg9
F4.0
ssS'avalanch'
p164
(dp165
g3
F1.95
sg4
F2.37
sg5
F2.0
sg6
F5.54
sg7
F3.29
sg8
F3.61
sg9
F1.0
ssS'golfer'
p166
(dp167
g3
F1.93
sg4
F2.26
sg5
F1.79
sg6
F3.73
sg7
F5.61
sg8
F5.55
sg9
F3.0
ssS'hide'
p168
(dp169
g3
F1.91
sg4
F2.51
sg5
F2.12
sg6
F5.28
sg7
F4.32
sg8
F3.4
sg9
F22.0
ssS'zest'
p170
(dp171
g3
F2.04
sg4
F2.66
sg5
F1.99
sg6
F5.59
sg7
F6.79
sg8
F6.0
sg9
F5.0
ssS'clock'
p172
(dp173
g3
F1.54
sg4
F2.54
sg5
F1.97
sg6
F4.02
sg7
F5.14
sg8
F4.67
sg9
F20.0
ssS'skeptic'
p174
(dp175
g3
F1.63
sg4
F1.92
sg5
F1.61
sg6
F4.91
sg7
F4.52
sg8
F4.5
sg9
F7.0
ssS'sun'
p176
(dp177
g3
F1.85
sg4
F2.66
sg5
F2.09
sg6
F5.04
sg7
F7.55
sg8
F6.16
sg9
F112.0
ssS'dirt'
p178
(dp179
g3
F1.77
sg4
F2.26
sg5
F1.82
sg6
F3.76
sg7
F4.17
sg8
F4.83
sg9
F43.0
ssS'lightn'
p180
(dp181
g3
F2.66
sg4
F1.77
sg5
F2.19
sg6
F6.61
sg7
F4.57
sg8
F3.67
sg9
F14.0
ssS'poison'
p182
(dp183
g3
F1.44
sg4
F2.82
sg5
F2.44
sg6
F6.05
sg7
F1.98
sg8
F3.1
sg9
F10.0
ssS'crush'
p184
(dp185
g3
F1.74
sg4
F2.87
sg5
F2.69
sg6
F5.52
sg7
F2.21
sg8
F3.36
sg9
F10.0
ssS'displeas'
p186
(dp187
g3
F2.23
sg4
F2.48
sg5
F2.19
sg6
F5.64
sg7
F2.79
sg8
F4.19
sg9
F7.0
ssS'rotten'
p188
(dp189
g3
F1.37
sg4
F2.38
sg5
F2.09
sg6
F4.53
sg7
F2.26
sg8
F4.32
sg9
F2.0
ssS'upset'
p190
(dp191
g3
F1.18
sg4
F2.4
sg5
F2.31
sg6
F5.86
sg7
F2.0
sg8
F4.08
sg9
F14.0
ssS'indiffer'
p192
(dp193
g3
F1.28
sg4
F1.85
sg5
F1.67
sg6
F3.18
sg7
F4.61
sg8
F4.84
sg9
F11.0
ssS'bird'
p194
(dp195
g3
F1.36
sg4
F2.23
sg5
F2.26
sg6
F3.17
sg7
F7.27
sg8
F4.42
sg9
F31.0
ssS'liberti'
p196
(dp197
g3
F1.22
sg4
F2.65
sg5
F2.44
sg6
F5.6
sg7
F7.98
sg8
F6.29
sg9
F46.0
ssS'wink'
p198
(dp199
g3
F1.83
sg4
F2.68
sg5
F1.77
sg6
F5.44
sg7
F6.93
sg8
F5.7
sg9
F7.0
ssS'poverti'
p200
(dp201
g3
F0.9
sg4
F2.66
sg5
F2.21
sg6
F4.87
sg7
F1.67
sg8
F3.21
sg9
F20.0
ssS'malaria'
p202
(dp203
g3
F1.38
sg4
F2.54
sg5
F1.9
sg6
F4.4
sg7
F2.4
sg8
F3.22
sg9
F3.0
ssS'sexi'
p204
(dp205
g3
F1.12
sg4
F1.91
sg5
F2.13
sg6
F7.36
sg7
F8.02
sg8
F6.82
sg9
F2.0
ssS'embattl'
p206
(dp207
g3
F1.63
sg4
F2.37
sg5
F1.79
sg6
F5.36
sg7
F4.39
sg8
F4.81
sg9
F1.0
ssS'tragedi'
p208
(dp209
g3
F1.31
sg4
F2.64
sg5
F2.34
sg6
F6.24
sg7
F1.78
sg8
F3.5
sg9
F49.0
ssS'dustpan'
p210
(dp211
g3
F1.68
sg4
F2.0
sg5
F1.81
sg6
F3.43
sg7
F3.98
sg8
F5.45
sg9
F0.0
ssS'agreement'
p212
(dp213
g3
F1.59
sg4
F2.24
sg5
F1.85
sg6
F5.02
sg7
F7.08
sg8
F6.22
sg9
F106.0
ssS'bodi'
p214
(dp215
g3
F2.37
sg4
F2.63
sg5
F2.12
sg6
F5.52
sg7
F5.55
sg8
F5.34
sg9
F276.0
ssS'scum'
p216
(dp217
g3
F1.56
sg4
F2.36
sg5
F1.99
sg6
F4.88
sg7
F2.43
sg8
F4.26
sg9
F0.0
ssS'detest'
p218
(dp219
g3
F1.3
sg4
F2.39
sg5
F2.6
sg6
F6.06
sg7
F2.17
sg8
F5.83
sg9
F1.0
ssS'cozi'
p220
(dp221
g3
F1.53
sg4
F2.28
sg5
F2.28
sg6
F3.32
sg7
F7.39
sg8
F4.89
sg9
F1.0
ssS'trunk'
p222
(dp223
g3
F1.57
sg4
F2.19
sg5
F1.9
sg6
F4.18
sg7
F5.09
sg8
F5.14
sg9
F8.0
ssS'deceit'
p224
(dp225
g3
F1.63
sg4
F2.46
sg5
F2.12
sg6
F5.68
sg7
F2.9
sg8
F3.95
sg9
F2.0
ssS'noisi'
p226
(dp227
g3
F2.02
sg4
F1.78
sg5
F1.76
sg6
F6.38
sg7
F5.02
sg8
F4.93
sg9
F6.0
ssS'respect'
p228
(dp229
g3
F1.27
sg4
F2.67
sg5
F2.38
sg6
F4.6
sg7
F7.22
sg8
F5.67
sg9
F4.0
ssS'legend'
p230
(dp231
g3
F1.34
sg4
F1.76
sg5
F1.64
sg6
F4.88
sg7
F6.39
sg8
F5.54
sg9
F26.0
ssS'social'
p232
(dp233
g3
F1.82
sg4
F2.59
sg5
F2.07
sg6
F4.98
sg7
F6.88
sg8
F5.91
sg9
F380.0
ssS'boy'
p234
(dp235
g3
F1.6
sg4
F2.37
sg5
F2.2
sg6
F4.58
sg7
F6.32
sg8
F5.34
sg9
F242.0
ssS'insan'
p236
(dp237
g3
F1.94
sg4
F2.45
sg5
F2.23
sg6
F5.83
sg7
F2.85
sg8
F4.12
sg9
F13.0
ssS'pretti'
p238
(dp239
g3
F1.26
sg4
F2.22
sg5
F1.97
sg6
F6.03
sg7
F7.75
sg8
F5.5
sg9
F107.0
ssS'miseri'
p240
(dp241
g3
F1.6
sg4
F2.69
sg5
F1.45
sg6
F5.17
sg7
F1.93
sg8
F2.55
sg9
F15.0
ssS'casino'
p242
(dp243
g3
F1.66
sg4
F2.12
sg5
F2.15
sg6
F6.51
sg7
F6.81
sg8
F5.12
sg9
F2.0
ssS'vacat'
p244
(dp245
g3
F1.36
sg4
F2.99
sg5
F2.08
sg6
F5.64
sg7
F8.16
sg8
F6.8
sg9
F47.0
ssS'jail'
p246
(dp247
g3
F1.27
sg4
F2.67
sg5
F2.71
sg6
F5.49
sg7
F1.95
sg8
F3.81
sg9
F21.0
ssS'brutal'
p248
(dp249
g3
F1.9
sg4
F2.36
sg5
F2.7
sg6
F6.6
sg7
F2.8
sg8
F4.59
sg9
F7.0
ssS'saint'
p250
(dp251
g3
F1.7
sg4
F1.9
sg5
F2.11
sg6
F4.49
sg7
F6.49
sg8
F5.37
sg9
F16.0
ssS'defeat'
p252
(dp253
g3
F1.66
sg4
F3.0
sg5
F2.34
sg6
F5.09
sg7
F2.34
sg8
F3.11
sg9
F15.0
ssS'opinion'
p254
(dp255
g3
F1.45
sg4
F2.46
sg5
F1.93
sg6
F4.89
sg7
F6.28
sg8
F5.53
sg9
F96.0
ssS'easygo'
p256
(dp257
g3
F1.5
sg4
F2.52
sg5
F1.75
sg6
F4.3
sg7
F7.2
sg8
F5.25
sg9
F1.0
ssS'guilti'
p258
(dp259
g3
F1.98
sg4
F2.76
sg5
F2.22
sg6
F6.04
sg7
F2.63
sg8
F3.09
sg9
F29.0
ssS'honor'
p260
(dp261
g3
F1.24
sg4
F1.83
sg5
F2.04
sg6
F5.9
sg7
F7.66
sg8
F6.7
sg9
F66.0
ssS'chanc'
p262
(dp263
g3
F1.77
sg4
F2.58
sg5
F1.93
sg6
F5.38
sg7
F6.02
sg8
F4.64
sg9
F131.0
ssS'theori'
p264
(dp265
g3
F1.49
sg4
F1.94
sg5
F1.81
sg6
F4.62
sg7
F5.3
sg8
F4.88
sg9
F129.0
ssS'medicin'
p266
(dp267
g3
F2.06
sg4
F2.36
sg5
F1.91
sg6
F4.4
sg7
F5.67
sg8
F4.7
sg9
F30.0
ssS'scorpion'
p268
(dp269
g3
F2.63
sg4
F3.08
sg5
F2.44
sg6
F5.38
sg7
F3.69
sg8
F3.98
sg9
F0.0
ssS'love'
p270
(dp271
g3
F0.71
sg4
F2.68
sg5
F2.53
sg6
F6.38
sg7
F8.64
sg8
F6.62
sg9
F56.0
ssS'danger'
p272
(dp273
g3
F2.22
sg4
F2.07
sg5
F2.31
sg6
F7.32
sg7
F2.95
sg8
F3.59
sg9
F70.0
ssS'madman'
p274
(dp275
g3
F2.49
sg4
F2.78
sg5
F2.55
sg6
F5.56
sg7
F3.91
sg8
F4.79
sg9
F2.0
ssS'vest'
p276
(dp277
g3
F1.33
sg4
F2.09
sg5
F1.24
sg6
F3.95
sg7
F5.25
sg8
F5.09
sg9
F4.0
ssS'young'
p278
(dp279
g3
F2.12
sg4
F2.51
sg5
F2.49
sg6
F5.64
sg7
F6.89
sg8
F5.3
sg9
F385.0
ssS'avenu'
p280
(dp281
g3
F1.37
sg4
F2.01
sg5
F1.53
sg6
F4.12
sg7
F5.5
sg8
F5.4
sg9
F46.0
ssS'voyag'
p282
(dp283
g3
F1.91
sg4
F2.23
sg5
F1.98
sg6
F5.55
sg7
F6.25
sg8
F5.18
sg9
F17.0
ssS'moral'
p284
(dp285
g3
F1.85
sg4
F2.28
sg5
F2.2
sg6
F4.49
sg7
F6.2
sg8
F5.9
sg9
F142.0
ssS'prestig'
p286
(dp287
g3
F1.9
sg4
F2.08
sg5
F1.96
sg6
F5.86
sg7
F7.26
sg8
F6.9
sg9
F29.0
ssS'famili'
p288
(dp289
g3
F1.55
sg4
F2.71
sg5
F1.87
sg6
F4.8
sg7
F7.65
sg8
F6.0
sg9
F331.0
ssS'scandal'
p290
(dp291
g3
F1.81
sg4
F2.22
sg5
F1.73
sg6
F5.12
sg7
F3.32
sg8
F4.34
sg9
F8.0
ssS'sugar'
p292
(dp293
g3
F1.73
sg4
F2.18
sg5
F1.5
sg6
F5.64
sg7
F6.74
sg8
F5.5
sg9
F34.0
ssS'mobil'
p294
(dp295
g3
F1.79
sg4
F2.18
sg5
F1.48
sg6
F5.0
sg7
F6.83
sg8
F6.43
sg9
F8.0
ssS'cloud'
p296
(dp297
g3
F2.18
sg4
F2.08
sg5
F1.66
sg6
F3.3
sg7
F6.18
sg8
F5.22
sg9
F38.0
ssS'bloodi'
p298
(dp299
g3
F1.98
sg4
F2.0
sg5
F1.89
sg6
F6.41
sg7
F2.9
sg8
F3.96
sg9
F8.0
ssS'aggress'
p300
(dp301
g3
F1.68
sg4
F2.33
sg5
F2.4
sg6
F5.83
sg7
F5.1
sg8
F5.59
sg9
F17.0
ssS'use'
p302
(dp303
g3
F1.6
sg4
F2.47
sg5
F2.1
sg6
F4.26
sg7
F7.14
sg8
F5.93
sg9
F58.0
ssS'lighthous'
p304
(dp305
g3
F2.08
sg4
F2.44
sg5
F2.02
sg6
F4.41
sg7
F5.89
sg8
F5.25
sg9
F0.0
ssS'memori'
p306
(dp307
g3
F1.5
sg4
F2.25
sg5
F2.12
sg6
F5.42
sg7
F6.62
sg8
F5.11
sg9
F76.0
ssS'injuri'
p308
(dp309
g3
F1.76
sg4
F2.06
sg5
F1.62
sg6
F5.69
sg7
F2.49
sg8
F3.57
sg9
F27.0
ssS'rape'
p310
(dp311
g3
F0.91
sg4
F3.17
sg5
F2.94
sg6
F6.81
sg7
F1.25
sg8
F2.97
sg9
F5.0
ssS'frog'
p312
(dp313
g3
F1.74
sg4
F2.03
sg5
F1.96
sg6
F4.54
sg7
F5.71
sg8
F5.34
sg9
F1.0
ssS'germ'
p314
(dp315
g3
F1.39
sg4
F2.24
sg5
F1.59
sg6
F4.49
sg7
F2.86
sg8
F3.79
sg9
F1.0
ssS'live'
p316
(dp317
g3
F1.97
sg4
F2.9
sg5
F1.95
sg6
F5.53
sg7
F7.2
sg8
F6.09
sg9
F26.0
ssS'lotteri'
p318
(dp319
g3
F2.04
sg4
F2.45
sg5
F2.11
sg6
F5.36
sg7
F6.57
sg8
F4.81
sg9
F1.0
ssS'armi'
p320
(dp321
g3
F1.75
sg4
F2.03
sg5
F2.45
sg6
F5.03
sg7
F4.72
sg8
F5.03
sg9
F132.0
ssS'cottag'
p322
(dp323
g3
F1.52
sg4
F2.54
sg5
F1.78
sg6
F3.39
sg7
F6.45
sg8
F5.39
sg9
F19.0
ssS'bliss'
p324
(dp325
g3
F2.24
sg4
F2.95
sg5
F2.15
sg6
F4.41
sg7
F6.95
sg8
F6.12
sg9
F4.0
ssS'angri'
p326
(dp327
g3
F1.7
sg4
F2.07
sg5
F2.74
sg6
F7.17
sg7
F2.85
sg8
F5.55
sg9
F45.0
ssS'pus'
p328
(dp329
g3
F1.91
sg4
F2.06
sg5
F1.82
sg6
F4.82
sg7
F2.86
sg8
F4.35
sg9
F0.0
ssS'rattl'
p330
(dp331
g3
F1.23
sg4
F2.18
sg5
F1.56
sg6
F4.36
sg7
F5.03
sg8
F4.17
sg9
F5.0
ssS'flabbi'
p332
(dp333
g3
F1.87
sg4
F2.81
sg5
F1.9
sg6
F4.82
sg7
F2.66
sg8
F3.31
sg9
F0.0
ssS'pencil'
p334
(dp335
g3
F0.68
sg4
F1.9
sg5
F1.73
sg6
F3.14
sg7
F5.22
sg8
F4.78
sg9
F34.0
ssS'thrill'
p336
(dp337
g3
F1.48
sg4
F1.65
sg5
F2.3
sg6
F8.02
sg7
F8.05
sg8
F6.54
sg9
F5.0
ssS'diamond'
p338
(dp339
g3
F1.2
sg4
F2.96
sg5
F2.28
sg6
F5.53
sg7
F7.92
sg8
F5.54
sg9
F8.0
ssS'door'
p340
(dp341
g3
F1.44
sg4
F2.29
sg5
F1.72
sg6
F3.8
sg7
F5.13
sg8
F4.69
sg9
F312.0
ssS'rancid'
p342
(dp343
g3
F2.28
sg4
F2.27
sg5
F1.86
sg6
F5.04
sg7
F4.34
sg8
F4.59
sg9
F0.0
ssS'riot'
p344
(dp345
g3
F1.93
sg4
F2.63
sg5
F2.47
sg6
F6.39
sg7
F2.96
sg8
F4.18
sg9
F7.0
ssS'relax'
p346
(dp347
g3
F1.77
sg4
F2.13
sg5
F1.9
sg6
F2.39
sg7
F7.0
sg8
F5.55
sg9
F14.0
ssS'babi'
p348
(dp349
g3
F1.2
sg4
F2.8
sg5
F2.8
sg6
F5.53
sg7
F8.22
sg8
F5.0
sg9
F62.0
ssS'peopl'
p350
(dp351
g3
F1.7
sg4
F2.09
sg5
F2.02
sg6
F5.94
sg7
F7.33
sg8
F6.14
sg9
F847.0
ssS'kerosen'
p352
(dp353
g3
F1.59
sg4
F2.51
sg5
F1.99
sg6
F4.34
sg7
F4.8
sg8
F4.63
sg9
F6.0
ssS'impress'
p354
(dp355
g3
F1.84
sg4
F2.65
sg5
F2.21
sg6
F5.42
sg7
F7.33
sg8
F5.51
sg9
F30.0
ssS'hurt'
p356
(dp357
g3
F1.26
sg4
F2.49
sg5
F2.22
sg6
F5.85
sg7
F1.9
sg8
F3.33
sg9
F37.0
ssS'grief'
p358
(dp359
g3
F1.04
sg4
F2.84
sg5
F2.35
sg6
F4.78
sg7
F1.69
sg8
F3.5
sg9
F10.0
ssS'glass'
p360
(dp361
g3
F1.38
sg4
F2.07
sg5
F1.46
sg6
F4.27
sg7
F4.75
sg8
F5.0
sg9
F99.0
ssS'flag'
p362
(dp363
g3
F1.66
sg4
F2.35
sg5
F1.66
sg6
F4.6
sg7
F6.02
sg8
F5.5
sg9
F16.0
ssS'drown'
p364
(dp365
g3
F1.48
sg4
F2.33
sg5
F1.99
sg6
F6.57
sg7
F1.92
sg8
F2.86
sg9
F3.0
ssS'rigid'
p366
(dp367
g3
F2.12
sg4
F2.47
sg5
F2.04
sg6
F4.66
sg7
F3.66
sg8
F4.61
sg9
F24.0
ssS'adult'
p368
(dp369
g3
F1.5
sg4
F1.95
sg5
F2.21
sg6
F4.76
sg7
F6.49
sg8
F5.75
sg9
F25.0
ssS'rabbit'
p370
(dp371
g3
F1.92
sg4
F2.19
sg5
F1.72
sg6
F4.02
sg7
F6.57
sg8
F6.08
sg9
F11.0
ssS'wound'
p372
(dp373
g3
F1.58
sg4
F2.01
sg5
F1.57
sg6
F5.82
sg7
F2.51
sg8
F3.92
sg9
F8.0
ssS'annoy'
p374
(dp375
g3
F1.81
sg4
F2.17
sg5
F2.04
sg6
F6.49
sg7
F2.74
sg8
F5.09
sg9
F2.0
ssS'accid'
p376
(dp377
g3
F1.19
sg4
F2.87
sg5
F2.22
sg6
F6.26
sg7
F2.05
sg8
F3.76
sg9
F33.0
ssS'meek'
p378
(dp379
g3
F1.69
sg4
F2.13
sg5
F2.23
sg6
F3.8
sg7
F3.87
sg8
F3.67
sg9
F10.0
ssS'bereav'
p380
(dp381
g3
F1.7
sg4
F2.15
sg5
F1.73
sg6
F4.2
sg7
F4.57
sg8
F4.33
sg9
F4.0
ssS'suffoc'
p382
(dp383
g3
F0.96
sg4
F3.19
sg5
F2.81
sg6
F6.03
sg7
F1.56
sg8
F3.44
sg9
F1.0
ssS'car'
p384
(dp385
g3
F1.63
sg4
F2.04
sg5
F2.06
sg6
F6.24
sg7
F7.73
sg8
F6.98
sg9
F274.0
ssS'cat'
p386
(dp387
g3
F2.43
sg4
F2.24
sg5
F2.05
sg6
F4.38
sg7
F5.72
sg8
F6.16
sg9
F0.0
ssS'justic'
p388
(dp389
g3
F1.35
sg4
F2.54
sg5
F2.26
sg6
F5.47
sg7
F7.78
sg8
F6.47
sg9
F114.0
ssS'locker'
p390
(dp391
g3
F1.31
sg4
F2.13
sg5
F1.87
sg6
F3.38
sg7
F5.19
sg8
F5.36
sg9
F9.0
ssS'sour'
p392
(dp393
g3
F1.98
sg4
F1.95
sg5
F1.5
sg6
F5.1
sg7
F3.93
sg8
F4.64
sg9
F3.0
ssS'icebox'
p394
(dp395
g3
F1.0
sg4
F2.11
sg5
F1.05
sg6
F4.17
sg7
F4.95
sg8
F5.05
sg9
F3.0
ssS'learn'
p396
(dp397
g3
F1.49
sg4
F2.22
sg5
F2.17
sg6
F5.39
sg7
F7.15
sg8
F6.34
sg9
F84.0
ssS'elbow'
p398
(dp399
g3
F0.92
sg4
F2.14
sg5
F1.52
sg6
F3.81
sg7
F5.12
sg8
F4.88
sg9
F10.0
ssS'laughter'
p400
(dp401
g3
F1.08
sg4
F2.5
sg5
F2.45
sg6
F6.75
sg7
F8.45
sg8
F6.45
sg9
F22.0
ssS'coffin'
p402
(dp403
g3
F1.96
sg4
F2.79
sg5
F2.54
sg6
F5.03
sg7
F2.56
sg8
F4.08
sg9
F7.0
ssS'aliv'
p404
(dp405
g3
F2.22
sg4
F2.74
sg5
F2.15
sg6
F5.5
sg7
F7.25
sg8
F6.39
sg9
F57.0
ssS'quarrel'
p406
(dp407
g3
F2.06
sg4
F2.56
sg5
F2.16
sg6
F6.29
sg7
F2.93
sg8
F4.02
sg9
F20.0
ssS'control'
p408
(dp409
g3
F2.25
sg4
F2.19
sg5
F3.15
sg6
F6.1
sg7
F3.8
sg8
F5.17
sg9
F23.0
ssS'heart'
p410
(dp411
g3
F1.53
sg4
F2.25
sg5
F2.11
sg6
F6.34
sg7
F7.39
sg8
F5.49
sg9
F173.0
ssS'shark'
p412
(dp413
g3
F2.47
sg4
F1.96
sg5
F2.16
sg6
F7.16
sg7
F3.65
sg8
F2.63
sg9
F0.0
ssS'skyscrap'
p414
(dp415
g3
F1.87
sg4
F2.17
sg5
F2.36
sg6
F5.71
sg7
F5.88
sg8
F4.33
sg9
F2.0
ssS'hostag'
p416
(dp417
g3
F1.8
sg4
F2.63
sg5
F2.32
sg6
F6.76
sg7
F2.2
sg8
F2.83
sg9
F2.0
ssS'millionair'
p418
(dp419
g3
F1.42
sg4
F2.7
sg5
F2.4
sg6
F6.14
sg7
F8.03
sg8
F6.97
sg9
F2.0
ssS'accept'
p420
(dp421
g3
F1.42
sg4
F2.7
sg5
F1.91
sg6
F5.4
sg7
F7.98
sg8
F6.64
sg9
F49.0
ssS'autumn'
p422
(dp423
g3
F2.14
sg4
F2.5
sg5
F1.85
sg6
F4.51
sg7
F6.3
sg8
F5.15
sg9
F22.0
ssS'sphere'
p424
(dp425
g3
F0.87
sg4
F1.99
sg5
F0.92
sg6
F3.88
sg7
F5.33
sg8
F5.0
sg9
F22.0
ssS'intercours'
p426
(dp427
g3
F1.57
sg4
F2.07
sg5
F1.78
sg6
F7.0
sg7
F7.36
sg8
F6.4
sg9
F9.0
ssS'abort'
p428
(dp429
g3
F2.3
sg4
F2.8
sg5
F2.54
sg6
F5.39
sg7
F3.5
sg8
F4.59
sg9
F6.0
ssS'chin'
p430
(dp431
g3
F1.27
sg4
F1.98
sg5
F1.48
sg6
F3.31
sg7
F5.29
sg8
F5.26
sg9
F27.0
ssS'nippl'
p432
(dp433
g3
F1.81
sg4
F2.55
sg5
F2.0
sg6
F5.56
sg7
F6.27
sg8
F5.57
sg9
F0.0
ssS'crimin'
p434
(dp435
g3
F1.66
sg4
F2.51
sg5
F1.73
sg6
F4.79
sg7
F2.93
sg8
F3.34
sg9
F24.0
ssS'gangren'
p436
(dp437
g3
F1.91
sg4
F2.96
sg5
F2.34
sg6
F5.7
sg7
F2.28
sg8
F3.36
sg9
F0.0
ssS'dress'
p438
(dp439
g3
F1.34
sg4
F1.89
sg5
F1.89
sg6
F4.05
sg7
F6.41
sg8
F5.0
sg9
F67.0
ssS'contempt'
p440
(dp441
g3
F2.13
sg4
F2.04
sg5
F1.73
sg6
F5.28
sg7
F3.85
sg8
F5.13
sg9
F15.0
ssS'lamb'
p442
(dp443
g3
F1.73
sg4
F2.18
sg5
F1.96
sg6
F3.36
sg7
F5.89
sg8
F4.91
sg9
F7.0
ssS'tumor'
p444
(dp445
g3
F2.04
sg4
F2.85
sg5
F2.42
sg6
F6.51
sg7
F2.36
sg8
F3.58
sg9
F17.0
ssS'scar'
p446
(dp447
g3
F1.7
sg4
F2.11
sg5
F1.71
sg6
F4.79
sg7
F3.38
sg8
F3.88
sg9
F10.0
ssS'bankrupt'
p448
(dp449
g3
F1.31
sg4
F2.79
sg5
F2.39
sg6
F6.21
sg7
F2.0
sg8
F3.27
sg9
F5.0
ssS'secur'
p450
(dp451
g3
F1.76
sg4
F2.47
sg5
F2.57
sg6
F3.14
sg7
F7.57
sg8
F5.93
sg9
F30.0
ssS'sailboat'
p452
(dp453
g3
F1.71
sg4
F2.73
sg5
F1.71
sg6
F4.88
sg7
F7.25
sg8
F5.86
sg9
F1.0
ssS'travel'
p454
(dp455
g3
F2.0
sg4
F2.51
sg5
F2.08
sg6
F6.21
sg7
F7.1
sg8
F6.31
sg9
F61.0
ssS'comfort'
p456
(dp457
g3
F2.14
sg4
F2.85
sg5
F2.05
sg6
F3.93
sg7
F7.07
sg8
F5.7
sg9
F43.0
ssS'penthous'
p458
(dp459
g3
F1.64
sg4
F2.49
sg5
F1.82
sg6
F5.52
sg7
F6.81
sg8
F6.52
sg9
F1.0
ssS'kettl'
p460
(dp461
g3
F0.91
sg4
F2.23
sg5
F1.4
sg6
F3.22
sg7
F5.22
sg8
F5.0
sg9
F3.0
ssS'delay'
p462
(dp463
g3
F1.74
sg4
F2.39
sg5
F1.94
sg6
F5.62
sg7
F3.07
sg8
F3.64
sg9
F25.0
ssS'lamp'
p464
(dp465
g3
F1.0
sg4
F2.12
sg5
F1.61
sg6
F3.8
sg7
F5.41
sg8
F5.27
sg9
F18.0
ssS'crutch'
p466
(dp467
g3
F1.62
sg4
F2.05
sg5
F1.79
sg6
F4.14
sg7
F3.43
sg8
F3.91
sg9
F1.0
ssS'cuddl'
p468
(dp469
g3
F1.92
sg4
F2.67
sg5
F2.42
sg6
F4.4
sg7
F7.72
sg8
F5.85
sg9
F0.0
ssS'reject'
p470
(dp471
g3
F1.09
sg4
F2.56
sg5
F2.58
sg6
F6.37
sg7
F1.5
sg8
F2.72
sg9
F33.0
ssS'answer'
p472
(dp473
g3
F1.68
sg4
F2.43
sg5
F1.88
sg6
F5.41
sg7
F6.63
sg8
F5.85
sg9
F152.0
ssS'disappoint'
p474
(dp475
g3
F1.44
sg4
F2.64
sg5
F2.32
sg6
F4.92
sg7
F2.39
sg8
F3.29
sg9
F0.0
ssS'scorn'
p476
(dp477
g3
F2.03
sg4
F2.56
sg5
F2.18
sg6
F5.04
sg7
F3.02
sg8
F4.59
sg9
F5.0
ssS'beach'
p478
(dp479
g3
F1.59
sg4
F3.07
sg5
F2.52
sg6
F5.53
sg7
F8.03
sg8
F5.44
sg9
F61.0
ssS'horror'
p480
(dp481
g3
F2.25
sg4
F2.14
sg5
F2.7
sg6
F7.21
sg7
F2.76
sg8
F4.63
sg9
F17.0
ssS'confid'
p482
(dp483
g3
F1.29
sg4
F2.41
sg5
F1.94
sg6
F6.22
sg7
F7.98
sg8
F7.68
sg9
F16.0
ssS'nonsens'
p484
(dp485
g3
F1.63
sg4
F2.02
sg5
F1.55
sg6
F4.17
sg7
F4.61
sg8
F4.9
sg9
F13.0
ssS'plant'
p486
(dp487
g3
F1.83
sg4
F2.25
sg5
F2.12
sg6
F3.62
sg7
F5.98
sg8
F4.71
sg9
F125.0
ssS'fever'
p488
(dp489
g3
F1.64
sg4
F2.31
sg5
F2.15
sg6
F4.29
sg7
F2.76
sg8
F3.52
sg9
F19.0
ssS'intrud'
p490
(dp491
g3
F2.32
sg4
F2.41
sg5
F2.68
sg6
F6.86
sg7
F2.77
sg8
F4.0
sg9
F1.0
ssS'farm'
p492
(dp493
g3
F1.85
sg4
F1.95
sg5
F1.81
sg6
F3.9
sg7
F5.53
sg8
F5.59
sg9
F125.0
ssS'slush'
p494
(dp495
g3
F1.88
sg4
F2.23
sg5
F1.48
sg6
F3.73
sg7
F4.66
sg8
F4.91
sg9
F0.0
ssS'lump'
p496
(dp497
g3
F2.34
sg4
F2.82
sg5
F2.18
sg6
F4.8
sg7
F4.16
sg8
F4.32
sg9
F7.0
ssS'fungus'
p498
(dp499
g3
F1.75
sg4
F2.33
sg5
F1.94
sg6
F4.68
sg7
F3.06
sg8
F4.06
sg9
F2.0
ssS'pressur'
p500
(dp501
g3
F1.61
sg4
F2.26
sg5
F2.07
sg6
F6.07
sg7
F3.38
sg8
F3.45
sg9
F185.0
ssS'discomfort'
p502
(dp503
g3
F1.23
sg4
F2.44
sg5
F2.26
sg6
F4.17
sg7
F2.19
sg8
F3.86
sg9
F7.0
ssS'birthday'
p504
(dp505
g3
F1.92
sg4
F2.11
sg5
F2.61
sg6
F6.68
sg7
F7.84
sg8
F5.89
sg9
F18.0
ssS'mad'
p506
(dp507
g3
F1.72
sg4
F2.26
sg5
F2.2
sg6
F6.76
sg7
F2.44
sg8
F5.86
sg9
F39.0
ssS'beauti'
p508
(dp509
g3
F1.16
sg4
F2.57
sg5
F2.1
sg6
F4.95
sg7
F7.82
sg8
F5.53
sg9
F71.0
ssS'water'
p510
(dp511
g3
F1.78
sg4
F2.49
sg5
F1.99
sg6
F4.97
sg7
F6.61
sg8
F5.08
sg9
F442.0
ssS'toothach'
p512
(dp513
g3
F1.15
sg4
F2.51
sg5
F1.85
sg6
F5.55
sg7
F1.98
sg8
F3.9
sg9
F0.0
ssS'hawk'
p514
(dp515
g3
F1.62
sg4
F2.29
sg5
F1.69
sg6
F4.39
sg7
F5.88
sg8
F5.5
sg9
F14.0
ssS'dove'
p516
(dp517
g3
F1.54
sg4
F2.28
sg5
F1.7
sg6
F3.79
sg7
F6.9
sg8
F5.48
sg9
F4.0
ssS'lesbian'
p518
(dp519
g3
F2.45
sg4
F2.27
sg5
F2.2
sg6
F5.12
sg7
F4.67
sg8
F5.35
sg9
F0.0
ssS'man'
p520
(dp521
g3
F1.7
sg4
F2.31
sg5
F2.23
sg6
F5.24
sg7
F6.73
sg8
F5.53
sg9
F1207.0
ssS'villag'
p522
(dp523
g3
F1.34
sg4
F1.87
sg5
F1.74
sg6
F4.08
sg7
F5.92
sg8
F4.94
sg9
F72.0
ssS'stress'
p524
(dp525
g3
F1.41
sg4
F2.38
sg5
F2.75
sg6
F7.45
sg7
F2.09
sg8
F3.93
sg9
F107.0
ssS'assassin'
p526
(dp527
g3
F2.09
sg4
F2.53
sg5
F2.68
sg6
F6.28
sg7
F3.09
sg8
F4.33
sg9
F6.0
ssS'happi'
p528
(dp529
g3
F1.82
sg4
F2.77
sg5
F2.43
sg6
F6.49
sg7
F8.21
sg8
F6.63
sg9
F98.0
ssS'unhappi'
p530
(dp531
g3
F0.96
sg4
F2.5
sg5
F2.35
sg6
F4.18
sg7
F1.57
sg8
F3.34
sg9
F26.0
ssS'life'
p532
(dp533
g3
F1.88
sg4
F2.62
sg5
F2.51
sg6
F6.02
sg7
F7.27
sg8
F5.72
sg9
F715.0
ssS'spous'
p534
(dp535
g3
F1.48
sg4
F2.75
sg5
F1.97
sg6
F5.21
sg7
F7.58
sg8
F5.53
sg9
F3.0
ssS'greet'
p536
(dp537
g3
F1.52
sg4
F2.31
sg5
F2.07
sg6
F5.27
sg7
F7.0
sg8
F5.95
sg9
F7.0
ssS'scare'
p538
(dp539
g3
F1.99
sg4
F2.03
sg5
F2.19
sg6
F6.82
sg7
F2.78
sg8
F2.94
sg9
F21.0
ssS'mangl'
p540
(dp541
g3
F2.01
sg4
F2.1
sg5
F1.84
sg6
F5.44
sg7
F3.9
sg8
F4.61
sg9
F0.0
ssS'narcot'
p542
(dp543
g3
F2.3
sg4
F2.57
sg5
F2.43
sg6
F4.93
sg7
F4.29
sg8
F4.44
sg9
F2.0
ssS'scurvi'
p544
(dp545
g3
F2.0
sg4
F2.72
sg5
F2.48
sg6
F4.71
sg7
F3.19
sg8
F4.48
sg9
F1.0
ssS'green'
p546
(dp547
g3
F2.05
sg4
F2.46
sg5
F2.05
sg6
F4.28
sg7
F6.18
sg8
F4.82
sg9
F116.0
ssS'dread'
p548
(dp549
g3
F1.91
sg4
F2.62
sg5
F2.36
sg6
F5.84
sg7
F2.26
sg8
F4.1
sg9
F10.0
ssS'spray'
p550
(dp551
g3
F1.63
sg4
F2.28
sg5
F1.43
sg6
F4.14
sg7
F5.45
sg8
F5.12
sg9
F16.0
ssS'tamper'
p552
(dp553
g3
F1.88
sg4
F2.01
sg5
F2.1
sg6
F4.95
sg7
F4.1
sg8
F4.58
sg9
F1.0
ssS'basket'
p554
(dp555
g3
F1.15
sg4
F2.02
sg5
F1.45
sg6
F3.63
sg7
F5.45
sg8
F5.76
sg9
F17.0
ssS'poetri'
p556
(dp557
g3
F1.91
sg4
F2.85
sg5
F1.81
sg6
F4.0
sg7
F5.86
sg8
F5.31
sg9
F88.0
ssS'egg'
p558
(dp559
g3
F1.82
sg4
F2.39
sg5
F2.16
sg6
F3.76
sg7
F5.29
sg8
F4.49
sg9
F12.0
ssS'greed'
p560
(dp561
g3
F1.93
sg4
F2.26
sg5
F2.03
sg6
F4.71
sg7
F3.51
sg8
F4.88
sg9
F3.0
ssS'wine'
p562
(dp563
g3
F2.19
sg4
F2.34
sg5
F2.15
sg6
F4.78
sg7
F5.95
sg8
F5.31
sg9
F72.0
ssS'obes'
p564
(dp565
g3
F1.85
sg4
F2.82
sg5
F2.45
sg6
F3.87
sg7
F2.73
sg8
F3.74
sg9
F5.0
ssS'cute'
p566
(dp567
g3
F1.01
sg4
F2.71
sg5
F2.32
sg6
F5.53
sg7
F7.62
sg8
F4.86
sg9
F5.0
ssS'infant'
p568
(dp569
g3
F2.08
sg4
F2.66
sg5
F2.48
sg6
F5.05
sg7
F6.95
sg8
F5.67
sg9
F11.0
ssS'comedi'
p570
(dp571
g3
F0.94
sg4
F2.81
sg5
F2.08
sg6
F5.85
sg7
F8.37
sg8
F5.44
sg9
F39.0
ssS'deform'
p572
(dp573
g3
F1.66
sg4
F2.34
sg5
F2.18
sg6
F4.07
sg7
F2.41
sg8
F3.95
sg9
F0.0
ssS'clumsi'
p574
(dp575
g3
F2.22
sg4
F2.4
sg5
F1.79
sg6
F5.18
sg7
F4.0
sg8
F3.86
sg9
F6.0
ssS'muffin'
p576
(dp577
g3
F2.04
sg4
F2.42
sg5
F1.63
sg6
F4.76
sg7
F6.57
sg8
F5.51
sg9
F0.0
ssS'fall'
p578
(dp579
g3
F2.21
sg4
F2.48
sg5
F2.15
sg6
F4.7
sg7
F4.09
sg8
F4.0
sg9
F147.0
ssS'graduat'
p580
(dp581
g3
F1.13
sg4
F2.25
sg5
F2.44
sg6
F7.25
sg7
F8.19
sg8
F6.94
sg9
F30.0
ssS'paper'
p582
(dp583
g3
F1.21
sg4
F1.85
sg5
F1.67
sg6
F2.5
sg7
F5.2
sg8
F4.47
sg9
F157.0
ssS'dazzl'
p584
(dp585
g3
F1.09
sg4
F2.02
sg5
F1.81
sg6
F6.33
sg7
F7.29
sg8
F5.62
sg9
F1.0
ssS'erot'
p586
(dp587
g3
F1.53
sg4
F1.97
sg5
F2.16
sg6
F7.24
sg7
F7.43
sg8
F6.39
sg9
F8.0
ssS'hell'
p588
(dp589
g3
F1.62
sg4
F2.62
sg5
F2.36
sg6
F5.38
sg7
F2.24
sg8
F3.24
sg9
F95.0
ssS'cold'
p590
(dp591
g3
F1.99
sg4
F2.23
sg5
F1.73
sg6
F5.19
sg7
F4.02
sg8
F4.69
sg9
F171.0
ssS'perfect'
p592
(dp593
g3
F2.05
sg4
F2.73
sg5
F2.26
sg6
F5.95
sg7
F7.25
sg8
F6.71
sg9
F11.0
ssS'obscen'
p594
(dp595
g3
F2.3
sg4
F2.3
sg5
F1.91
sg6
F5.04
sg7
F4.23
sg8
F4.48
sg9
F2.0
ssS'gentl'
p596
(dp597
g3
F1.3
sg4
F2.57
sg5
F2.16
sg6
F3.21
sg7
F7.31
sg8
F5.1
sg9
F27.0
ssS'thank'
p598
(dp599
g3
F2.29
sg4
F2.31
sg5
F2.0
sg6
F4.34
sg7
F6.89
sg8
F5.32
sg9
F6.0
ssS'passag'
p600
(dp601
g3
F1.44
sg4
F2.13
sg5
F1.62
sg6
F4.36
sg7
F5.28
sg8
F5.02
sg9
F49.0
ssS'inferior'
p602
(dp603
g3
F1.57
sg4
F2.05
sg5
F2.08
sg6
F3.83
sg7
F3.07
sg8
F2.78
sg9
F7.0
ssS'offic'
p604
(dp605
g3
F1.59
sg4
F1.92
sg5
F1.89
sg6
F4.08
sg7
F5.24
sg8
F5.59
sg9
F255.0
ssS'scissor'
p606
(dp607
g3
F0.96
sg4
F1.76
sg5
F1.84
sg6
F4.47
sg7
F5.05
sg8
F5.16
sg9
F1.0
ssS'astonish'
p608
(dp609
g3
F1.61
sg4
F2.22
sg5
F1.79
sg6
F6.58
sg7
F6.56
sg8
F5.16
sg9
F6.0
ssS'rabi'
p610
(dp611
g3
F0.97
sg4
F2.62
sg5
F2.34
sg6
F6.1
sg7
F1.77
sg8
F3.85
sg9
F1.0
ssS'mail'
p612
(dp613
g3
F1.74
sg4
F2.36
sg5
F1.79
sg6
F5.63
sg7
F6.88
sg8
F5.67
sg9
F47.0
ssS'derelict'
p614
(dp615
g3
F1.84
sg4
F1.94
sg5
F1.56
sg6
F4.1
sg7
F4.28
sg8
F4.78
sg9
F1.0
ssS'holiday'
p616
(dp617
g3
F2.14
sg4
F2.73
sg5
F2.17
sg6
F6.59
sg7
F7.55
sg8
F6.3
sg9
F17.0
ssS'peni'
p618
(dp619
g3
F1.72
sg4
F2.63
sg5
F2.54
sg6
F5.54
sg7
F5.9
sg8
F5.92
sg9
F0.0
ssS'morbid'
p620
(dp621
g3
F2.14
sg4
F2.68
sg5
F2.5
sg6
F5.06
sg7
F2.87
sg8
F4.34
sg9
F1.0
ssS'hairdryer'
p622
(dp623
g3
F0.84
sg4
F1.75
sg5
F1.27
sg6
F3.71
sg7
F4.84
sg8
F5.57
sg9
F0.0
ssS'good'
p624
(dp625
g3
F1.45
sg4
F2.85
sg5
F2.05
sg6
F5.43
sg7
F7.47
sg8
F6.41
sg9
F807.0
ssS'crash'
p626
(dp627
g3
F1.44
sg4
F2.44
sg5
F2.21
sg6
F6.95
sg7
F2.31
sg8
F3.44
sg9
F20.0
ssS'wealthi'
p628
(dp629
g3
F1.34
sg4
F2.73
sg5
F2.57
sg6
F5.8
sg7
F7.7
sg8
F6.77
sg9
F12.0
ssS'food'
p630
(dp631
g3
F1.37
sg4
F2.11
sg5
F2.48
sg6
F5.92
sg7
F7.65
sg8
F6.18
sg9
F147.0
ssS'disloy'
p632
(dp633
g3
F1.61
sg4
F2.21
sg5
F2.75
sg6
F6.56
sg7
F1.93
sg8
F3.79
sg9
F2.0
ssS'killer'
p634
(dp635
g3
F1.39
sg4
F1.89
sg5
F3.11
sg6
F7.86
sg7
F1.89
sg8
F4.54
sg9
F21.0
ssS'valentin'
p636
(dp637
g3
F1.35
sg4
F2.91
sg5
F2.45
sg6
F6.06
sg7
F8.11
sg8
F5.81
sg9
F2.0
ssS'wast'
p638
(dp639
g3
F1.76
sg4
F2.3
sg5
F1.94
sg6
F4.14
sg7
F2.93
sg8
F4.72
sg9
F35.0
ssS'toxic'
p640
(dp641
g3
F1.48
sg4
F2.41
sg5
F2.51
sg6
F6.4
sg7
F2.1
sg8
F4.42
sg9
F3.0
ssS'loneli'
p642
(dp643
g3
F1.02
sg4
F2.97
sg5
F2.27
sg6
F4.56
sg7
F1.61
sg8
F2.51
sg9
F9.0
ssS'vomit'
p644
(dp645
g3
F1.57
sg4
F2.84
sg5
F2.45
sg6
F5.75
sg7
F2.06
sg8
F3.58
sg9
F3.0
ssS'frigid'
p646
(dp647
g3
F1.85
sg4
F2.56
sg5
F1.98
sg6
F4.75
sg7
F3.5
sg8
F4.27
sg9
F5.0
ssS'kiss'
p648
(dp649
g3
F1.54
sg4
F2.03
sg5
F2.28
sg6
F7.32
sg7
F8.26
sg8
F6.93
sg9
F17.0
ssS'agoni'
p650
(dp651
g3
F2.17
sg4
F2.67
sg5
F2.49
sg6
F6.06
sg7
F2.43
sg8
F4.02
sg9
F9.0
ssS'foot'
p652
(dp653
g3
F0.93
sg4
F1.98
sg5
F1.42
sg6
F3.27
sg7
F5.02
sg8
F4.98
sg9
F70.0
ssS'immatur'
p654
(dp655
g3
F1.7
sg4
F1.96
sg5
F2.2
sg6
F4.15
sg7
F3.39
sg8
F4.85
sg9
F7.0
ssS'adventur'
p656
(dp657
g3
F1.5
sg4
F2.15
sg5
F1.67
sg6
F6.98
sg7
F7.6
sg8
F6.46
sg9
F14.0
ssS'prick'
p658
(dp659
g3
F1.73
sg4
F2.59
sg5
F1.88
sg6
F4.7
sg7
F3.98
sg8
F4.47
sg9
F2.0
ssS'ketchup'
p660
(dp661
g3
F1.35
sg4
F2.08
sg5
F1.81
sg6
F4.09
sg7
F5.6
sg8
F5.29
sg9
F1.0
ssS'scholar'
p662
(dp663
g3
F1.42
sg4
F2.46
sg5
F2.02
sg6
F5.12
sg7
F7.26
sg8
F6.59
sg9
F15.0
ssS'gloom'
p664
(dp665
g3
F1.23
sg4
F2.33
sg5
F2.07
sg6
F3.83
sg7
F1.88
sg8
F3.55
sg9
F14.0
ssS'syphili'
p666
(dp667
g3
F1.23
sg4
F3.25
sg5
F2.67
sg6
F5.69
sg7
F1.68
sg8
F3.33
sg9
F0.0
ssS'name'
p668
(dp669
g3
F2.24
sg4
F2.47
sg5
F2.08
sg6
F4.25
sg7
F5.55
sg8
F5.16
sg9
F294.0
ssS'arrog'
p670
(dp671
g3
F2.4
sg4
F2.23
sg5
F2.71
sg6
F5.65
sg7
F3.69
sg8
F5.14
sg9
F2.0
ssS'panic'
p672
(dp673
g3
F1.84
sg4
F2.02
sg5
F1.67
sg6
F7.02
sg7
F3.12
sg8
F3.2
sg9
F22.0
ssS'radiant'
p674
(dp675
g3
F2.17
sg4
F2.82
sg5
F2.17
sg6
F5.39
sg7
F6.73
sg8
F5.61
sg9
F8.0
ssS'sweetheart'
p676
(dp677
g3
F0.83
sg4
F2.73
sg5
F2.24
sg6
F5.5
sg7
F8.42
sg8
F6.03
sg9
F9.0
ssS'refresh'
p678
(dp679
g3
F1.29
sg4
F2.7
sg5
F1.92
sg6
F4.45
sg7
F7.44
sg8
F5.0
sg9
F2.0
ssS'needl'
p680
(dp681
g3
F1.73
sg4
F2.89
sg5
F2.17
sg6
F5.36
sg7
F3.82
sg8
F3.95
sg9
F15.0
ssS'bless'
p682
(dp683
g3
F1.69
sg4
F2.59
sg5
F2.22
sg6
F4.05
sg7
F7.19
sg8
F5.52
sg9
F9.0
ssS'achiev'
p684
(dp685
g3
F1.38
sg4
F2.81
sg5
F2.35
sg6
F5.53
sg7
F7.89
sg8
F6.56
sg9
F65.0
ssS'enrag'
p686
(dp687
g3
F1.65
sg4
F2.17
sg5
F2.92
sg6
F7.97
sg7
F2.46
sg8
F6.33
sg9
F1.0
ssS'polit'
p688
(dp689
g3
F1.5
sg4
F2.37
sg5
F1.7
sg6
F3.74
sg7
F7.18
sg8
F5.74
sg9
F5.0
ssS'truth'
p690
(dp691
g3
F1.29
sg4
F2.77
sg5
F2.11
sg6
F5.0
sg7
F7.8
sg8
F6.47
sg9
F126.0
ssS'pinch'
p692
(dp693
g3
F1.7
sg4
F2.1
sg5
F1.73
sg6
F4.59
sg7
F3.83
sg8
F4.76
sg9
F6.0
ssS'volcano'
p694
(dp695
g3
F2.14
sg4
F2.21
sg5
F1.97
sg6
F6.33
sg7
F4.84
sg8
F3.25
sg9
F2.0
ssS'pizza'
p696
(dp697
g3
F2.23
sg4
F2.09
sg5
F1.9
sg6
F5.24
sg7
F6.65
sg8
F5.69
sg9
F3.0
ssS'scorch'
p698
(dp699
g3
F1.83
sg4
F2.74
sg5
F2.01
sg6
F5.0
sg7
F3.76
sg8
F4.1
sg9
F0.0
ssS'lantern'
p700
(dp701
g3
F1.19
sg4
F2.28
sg5
F1.82
sg6
F4.05
sg7
F5.57
sg8
F5.07
sg9
F13.0
ssS'burial'
p702
(dp703
g3
F1.41
sg4
F2.4
sg5
F1.95
sg6
F5.08
sg7
F2.05
sg8
F3.55
sg9
F11.0
ssS'agil'
p704
(dp705
g3
F1.57
sg4
F1.8
sg5
F1.52
sg6
F4.85
sg7
F6.46
sg8
F5.87
sg9
F3.0
ssS'garment'
p706
(dp707
g3
F1.61
sg4
F2.5
sg5
F1.96
sg6
F4.49
sg7
F6.07
sg8
F5.3
sg9
F6.0
ssS'fish'
p708
(dp709
g3
F1.94
sg4
F2.19
sg5
F1.68
sg6
F4.0
sg7
F6.04
sg8
F6.02
sg9
F35.0
ssS'hard'
p710
(dp711
g3
F1.82
sg4
F2.19
sg5
F1.63
sg6
F5.12
sg7
F5.22
sg8
F5.59
sg9
F202.0
ssS'idea'
p712
(dp713
g3
F1.34
sg4
F1.81
sg5
F2.0
sg6
F5.86
sg7
F7.0
sg8
F6.26
sg9
F195.0
ssS'terrifi'
p714
(dp715
g3
F1.14
sg4
F2.27
sg5
F2.75
sg6
F7.86
sg7
F1.72
sg8
F3.08
sg9
F7.0
ssS'gun'
p716
(dp717
g3
F2.48
sg4
F1.84
sg5
F2.72
sg6
F7.02
sg7
F3.47
sg8
F3.53
sg9
F118.0
ssS'aloof'
p718
(dp719
g3
F1.92
sg4
F2.1
sg5
F1.92
sg6
F4.28
sg7
F4.9
sg8
F4.69
sg9
F5.0
ssS'dawn'
p720
(dp721
g3
F2.33
sg4
F2.81
sg5
F2.23
sg6
F4.39
sg7
F6.16
sg8
F5.16
sg9
F28.0
ssS'win'
p722
(dp723
g3
F0.92
sg4
F2.16
sg5
F2.36
sg6
F7.72
sg7
F8.38
sg8
F7.39
sg9
F55.0
ssS'event'
p724
(dp725
g3
F1.63
sg4
F2.4
sg5
F1.57
sg6
F5.1
sg7
F6.21
sg8
F5.52
sg9
F81.0
ssS'depress'
p726
(dp727
g3
F1.67
sg4
F3.19
sg5
F2.27
sg6
F4.54
sg7
F1.85
sg8
F2.91
sg9
F24.0
ssS'putrid'
p728
(dp729
g3
F1.71
sg4
F2.26
sg5
F2.09
sg6
F5.74
sg7
F2.38
sg8
F4.89
sg9
F0.0
ssS'flower'
p730
(dp731
g3
F1.78
sg4
F2.44
sg5
F2.17
sg6
F4.0
sg7
F6.64
sg8
F4.98
sg9
F23.0
ssS'alcohol'
p732
(dp733
g3
F2.34
sg4
F2.36
sg5
F2.56
sg6
F5.69
sg7
F2.84
sg8
F4.45
sg9
F3.0
ssS'sentiment'
p734
(dp735
g3
F1.71
sg4
F2.3
sg5
F1.46
sg6
F4.41
sg7
F5.98
sg8
F5.09
sg9
F23.0
ssS'space'
p736
(dp737
g3
F1.66
sg4
F2.54
sg5
F2.44
sg6
F5.14
sg7
F6.78
sg8
F5.2
sg9
F184.0
ssS'profit'
p738
(dp739
g3
F1.3
sg4
F1.78
sg5
F2.47
sg6
F6.68
sg7
F7.63
sg8
F5.85
sg9
F28.0
ssS'god'
p740
(dp741
g3
F1.27
sg4
F2.84
sg5
F2.89
sg6
F5.95
sg7
F8.15
sg8
F5.88
sg9
F318.0
ssS'busybodi'
p742
(dp743
g3
F2.02
sg4
F2.41
sg5
F1.97
sg6
F4.84
sg7
F5.17
sg8
F5.45
sg9
F0.0
ssS'content'
p744
(dp745
g3
F0.89
sg4
F2.14
sg5
F1.49
sg6
F4.32
sg7
F4.89
sg8
F4.85
sg9
F16.0
ssS'palac'
p746
(dp747
g3
F1.78
sg4
F2.75
sg5
F2.17
sg6
F5.1
sg7
F7.19
sg8
F5.69
sg9
F38.0
ssS'stool'
p748
(dp749
g3
F1.72
sg4
F2.14
sg5
F1.85
sg6
F4.0
sg7
F4.56
sg8
F4.98
sg9
F8.0
ssS'health'
p750
(dp751
g3
F1.88
sg4
F2.35
sg5
F1.91
sg6
F5.13
sg7
F6.81
sg8
F5.83
sg9
F105.0
ssS'blubber'
p752
(dp753
g3
F1.99
sg4
F2.38
sg5
F1.97
sg6
F4.57
sg7
F3.52
sg8
F3.86
sg9
F1.0
ssS'hooker'
p754
(dp755
g3
F2.31
sg4
F2.82
sg5
F2.48
sg6
F4.93
sg7
F3.34
sg8
F4.73
sg9
F0.0
ssS'highway'
p756
(dp757
g3
F1.72
sg4
F2.44
sg5
F1.81
sg6
F5.16
sg7
F5.92
sg8
F5.66
sg9
F40.0
ssS'jolli'
p758
(dp759
g3
F1.92
sg4
F2.8
sg5
F1.72
sg6
F5.57
sg7
F7.41
sg8
F6.39
sg9
F4.0
ssS'umbrella'
p760
(dp761
g3
F1.57
sg4
F1.99
sg5
F1.91
sg6
F3.68
sg7
F5.16
sg8
F5.42
sg9
F8.0
ssS'carcass'
p762
(dp763
g3
F1.92
sg4
F2.07
sg5
F1.79
sg6
F4.83
sg7
F3.34
sg8
F4.9
sg9
F7.0
ssS'rude'
p764
(dp765
g3
F2.11
sg4
F2.47
sg5
F2.49
sg6
F6.31
sg7
F2.5
sg8
F4.91
sg9
F6.0
ssS'utensil'
p766
(dp767
g3
F1.39
sg4
F1.98
sg5
F1.47
sg6
F3.57
sg7
F5.14
sg8
F5.4
sg9
F0.0
ssS'nightmar'
p768
(dp769
g3
F1.54
sg4
F2.23
sg5
F2.76
sg6
F7.59
sg7
F1.91
sg8
F3.68
sg9
F9.0
ssS'snuggl'
p770
(dp771
g3
F1.24
sg4
F2.8
sg5
F2.47
sg6
F4.16
sg7
F7.92
sg8
F5.66
sg9
F4.0
ssS'suspici'
p772
(dp773
g3
F1.42
sg4
F1.59
sg5
F1.99
sg6
F6.25
sg7
F3.76
sg8
F4.47
sg9
F13.0
ssS'cockroach'
p774
(dp775
g3
F2.11
sg4
F2.78
sg5
F2.58
sg6
F6.11
sg7
F2.81
sg8
F4.74
sg9
F2.0
ssS'invad'
p776
(dp777
g3
F2.01
sg4
F2.4
sg5
F2.6
sg6
F5.5
sg7
F3.05
sg8
F4.0
sg9
F1.0
ssS'quart'
p778
(dp779
g3
F2.01
sg4
F2.51
sg5
F1.86
sg6
F3.59
sg7
F5.39
sg8
F5.2
sg9
F3.0
ssS'heroin'
p780
(dp781
g3
F2.73
sg4
F2.72
sg5
F2.54
sg6
F5.11
sg7
F4.36
sg8
F4.8
sg9
F2.0
ssS'rain'
p782
(dp783
g3
F2.51
sg4
F2.35
sg5
F1.68
sg6
F3.65
sg7
F5.08
sg8
F4.78
sg9
F70.0
ssS'romant'
p784
(dp785
g3
F1.0
sg4
F2.07
sg5
F2.29
sg6
F7.59
sg7
F8.32
sg8
F6.08
sg9
F32.0
ssS'embarrass'
p786
(dp787
g3
F1.85
sg4
F2.55
sg5
F1.99
sg6
F5.87
sg7
F3.03
sg8
F2.87
sg9
F8.0
ssS'hand'
p788
(dp789
g3
F1.38
sg4
F2.07
sg5
F1.49
sg6
F4.4
sg7
F5.95
sg8
F5.35
sg9
F431.0
ssS'storm'
p790
(dp791
g3
F2.22
sg4
F2.34
sg5
F2.04
sg6
F5.71
sg7
F4.95
sg8
F4.54
sg9
F26.0
ssS'hydrant'
p792
(dp793
g3
F0.93
sg4
F1.75
sg5
F1.3
sg6
F3.71
sg7
F5.02
sg8
F5.53
sg9
F0.0
ssS'blister'
p794
(dp795
g3
F1.75
sg4
F2.34
sg5
F1.9
sg6
F4.1
sg7
F2.88
sg8
F3.98
sg9
F3.0
ssS'beast'
p796
(dp797
g3
F2.41
sg4
F2.61
sg5
F2.29
sg6
F5.57
sg7
F4.23
sg8
F4.89
sg9
F7.0
ssS'maniac'
p798
(dp799
g3
F2.0
sg4
F2.46
sg5
F2.07
sg6
F5.39
sg7
F3.76
sg8
F4.22
sg9
F4.0
ssS'lous'
p800
(dp801
g3
F1.92
sg4
F2.03
sg5
F2.26
sg6
F4.98
sg7
F2.81
sg8
F3.57
sg9
F3.0
ssS'modest'
p802
(dp803
g3
F1.28
sg4
F2.24
sg5
F2.16
sg6
F3.98
sg7
F5.76
sg8
F4.96
sg9
F29.0
ssS'honest'
p804
(dp805
g3
F1.43
sg4
F1.92
sg5
F2.13
sg6
F5.32
sg7
F7.7
sg8
F6.24
sg9
F47.0
ssS'plane'
p806
(dp807
g3
F1.98
sg4
F2.39
sg5
F2.19
sg6
F6.14
sg7
F6.43
sg8
F4.78
sg9
F114.0
ssS'startl'
p808
(dp809
g3
F1.67
sg4
F2.24
sg5
F1.57
sg6
F6.93
sg7
F4.5
sg8
F4.48
sg9
F21.0
ssS'confus'
p810
(dp811
g3
F1.51
sg4
F1.88
sg5
F1.91
sg6
F6.03
sg7
F3.21
sg8
F4.24
sg9
F44.0
ssS'neglect'
p812
(dp813
g3
F1.64
sg4
F2.31
sg5
F2.29
sg6
F4.83
sg7
F2.63
sg8
F3.85
sg9
F12.0
ssS'teas'
p814
(dp815
g3
F2.51
sg4
F2.56
sg5
F2.37
sg6
F5.87
sg7
F4.84
sg8
F4.67
sg9
F6.0
ssS'blind'
p816
(dp817
g3
F1.99
sg4
F2.36
sg5
F1.91
sg6
F4.39
sg7
F3.05
sg8
F3.28
sg9
F47.0
ssS'fantasi'
p818
(dp819
g3
F1.9
sg4
F2.82
sg5
F2.05
sg6
F5.14
sg7
F7.41
sg8
F6.43
sg9
F14.0
ssS'tomb'
p820
(dp821
g3
F1.88
sg4
F2.72
sg5
F2.05
sg6
F4.73
sg7
F2.94
sg8
F3.72
sg9
F11.0
ssS'vehicl'
p822
(dp823
g3
F2.34
sg4
F2.81
sg5
F2.61
sg6
F4.63
sg7
F6.27
sg8
F5.77
sg9
F35.0
ssS'bouquet'
p824
(dp825
g3
F1.84
sg4
F2.47
sg5
F1.8
sg6
F5.46
sg7
F7.02
sg8
F6.15
sg9
F4.0
ssS'wasp'
p826
(dp827
g3
F1.63
sg4
F2.17
sg5
F1.82
sg6
F5.5
sg7
F3.37
sg8
F3.76
sg9
F2.0
ssS'qualiti'
p828
(dp829
g3
F1.59
sg4
F2.12
sg5
F1.59
sg6
F4.48
sg7
F6.25
sg8
F5.64
sg9
F114.0
ssS'beverag'
p830
(dp831
g3
F1.48
sg4
F2.46
sg5
F2.17
sg6
F5.21
sg7
F6.83
sg8
F5.63
sg9
F5.0
ssS'listless'
p832
(dp833
g3
F1.73
sg4
F2.31
sg5
F1.73
sg6
F4.1
sg7
F4.12
sg8
F4.14
sg9
F1.0
ssS'fatigu'
p834
(dp835
g3
F1.43
sg4
F2.19
sg5
F1.97
sg6
F2.64
sg7
F3.28
sg8
F3.78
sg9
F3.0
ssS'sunlight'
p836
(dp837
g3
F1.43
sg4
F2.3
sg5
F2.15
sg6
F6.1
sg7
F7.76
sg8
F5.63
sg9
F17.0
ssS'bland'
p838
(dp839
g3
F1.08
sg4
F1.89
sg5
F1.27
sg6
F3.29
sg7
F4.1
sg8
F4.88
sg9
F3.0
ssS'custom'
p840
(dp841
g3
F1.53
sg4
F2.12
sg5
F1.87
sg6
F4.66
sg7
F5.85
sg8
F5.0
sg9
F14.0
ssS'vandal'
p842
(dp843
g3
F1.91
sg4
F1.88
sg5
F2.49
sg6
F6.4
sg7
F2.71
sg8
F3.91
sg9
F1.0
ssS'swimmer'
p844
(dp845
g3
F1.64
sg4
F2.49
sg5
F1.91
sg6
F4.82
sg7
F6.54
sg8
F5.96
sg9
F0.0
ssS'urin'
p846
(dp847
g3
F1.71
sg4
F2.18
sg5
F1.86
sg6
F4.2
sg7
F3.25
sg8
F5.24
sg9
F1.0
ssS'razor'
p848
(dp849
g3
F2.16
sg4
F2.44
sg5
F1.95
sg6
F5.36
sg7
F4.81
sg8
F4.91
sg9
F15.0
ssS'termit'
p850
(dp851
g3
F2.08
sg4
F2.43
sg5
F1.87
sg6
F5.39
sg7
F3.58
sg8
F3.87
sg9
F0.0
ssS'christma'
p852
(dp853
g3
F1.55
sg4
F2.56
sg5
F2.09
sg6
F6.27
sg7
F7.8
sg8
F5.37
sg9
F27.0
ssS'paint'
p854
(dp855
g3
F1.72
sg4
F2.36
sg5
F1.71
sg6
F4.1
sg7
F5.62
sg8
F5.75
sg9
F37.0
ssS'blossom'
p856
(dp857
g3
F1.18
sg4
F2.65
sg5
F2.21
sg6
F5.03
sg7
F7.26
sg8
F5.53
sg9
F7.0
ssS'grime'
p858
(dp859
g3
F1.34
sg4
F2.29
sg5
F1.28
sg6
F3.98
sg7
F3.37
sg8
F4.47
sg9
F0.0
ssS'ambul'
p860
(dp861
g3
F1.5
sg4
F1.96
sg5
F2.29
sg6
F7.33
sg7
F2.47
sg8
F3.22
sg9
F6.0
ssS'citi'
p862
(dp863
g3
F1.37
sg4
F2.53
sg5
F2.08
sg6
F5.24
sg7
F6.03
sg8
F5.74
sg9
F393.0
ssS'vagina'
p864
(dp865
g3
F1.77
sg4
F2.55
sg5
F1.74
sg6
F5.55
sg7
F6.14
sg8
F5.88
sg9
F10.0
ssS'master'
p866
(dp867
g3
F1.78
sg4
F2.85
sg5
F2.56
sg6
F5.2
sg7
F7.09
sg8
F7.18
sg9
F2.0
ssS'breez'
p868
(dp869
g3
F1.71
sg4
F2.32
sg5
F1.67
sg6
F4.37
sg7
F6.85
sg8
F5.54
sg9
F14.0
ssS'circl'
p870
(dp871
g3
F1.26
sg4
F2.13
sg5
F1.46
sg6
F3.86
sg7
F5.67
sg8
F5.03
sg9
F60.0
ssS'privaci'
p872
(dp873
g3
F1.5
sg4
F1.83
sg5
F1.78
sg6
F4.12
sg7
F5.88
sg8
F5.66
sg9
F12.0
ssS'pancak'
p874
(dp875
g3
F1.83
sg4
F2.13
sg5
F1.61
sg6
F4.06
sg7
F6.08
sg8
F5.76
sg9
F0.0
ssS'kid'
p876
(dp877
g3
F1.99
sg4
F2.36
sg5
F2.03
sg6
F5.27
sg7
F6.91
sg8
F5.07
sg9
F32.0
ssS'friend'
p878
(dp879
g3
F1.08
sg4
F2.96
sg5
F2.42
sg6
F5.11
sg7
F8.43
sg8
F5.92
sg9
F61.0
ssS'free'
p880
(dp881
g3
F1.31
sg4
F3.04
sg5
F2.4
sg6
F5.15
sg7
F8.26
sg8
F6.35
sg9
F260.0
ssS'hug'
p882
(dp883
g3
F1.55
sg4
F2.76
sg5
F2.41
sg6
F5.35
sg7
F8.0
sg8
F5.79
sg9
F3.0
ssS'consol'
p884
(dp885
g3
F1.64
sg4
F2.22
sg5
F1.84
sg6
F4.53
sg7
F5.78
sg8
F4.44
sg9
F2.0
ssS'option'
p886
(dp887
g3
F1.31
sg4
F2.23
sg5
F1.8
sg6
F4.74
sg7
F6.49
sg8
F6.34
sg9
F5.0
ssS'punish'
p888
(dp889
g3
F1.41
sg4
F2.4
sg5
F2.43
sg6
F5.93
sg7
F2.22
sg8
F3.5
sg9
F21.0
ssS'tool'
p890
(dp891
g3
F1.27
sg4
F1.78
sg5
F1.62
sg6
F4.33
sg7
F5.19
sg8
F5.67
sg9
F40.0
ssS'hotel'
p892
(dp893
g3
F1.77
sg4
F2.53
sg5
F1.84
sg6
F4.8
sg7
F6.0
sg8
F5.12
sg9
F126.0
ssS'obnoxi'
p894
(dp895
g3
F2.18
sg4
F2.42
sg5
F2.2
sg6
F4.74
sg7
F3.5
sg8
F5.39
sg9
F5.0
ssS'dentist'
p896
(dp897
g3
F2.23
sg4
F2.13
sg5
F2.16
sg6
F5.73
sg7
F4.02
sg8
F3.8
sg9
F12.0
ssS'masturb'
p898
(dp899
g3
F2.02
sg4
F2.18
sg5
F2.25
sg6
F5.67
sg7
F5.45
sg8
F5.63
sg9
F0.0
ssS'sex'
p900
(dp901
g3
F1.53
sg4
F1.91
sg5
F2.25
sg6
F7.36
sg7
F8.05
sg8
F5.75
sg9
F84.0
ssS'dreari'
p902
(dp903
g3
F1.58
sg4
F2.18
sg5
F1.64
sg6
F2.98
sg7
F3.05
sg8
F3.81
sg9
F6.0
ssS'king'
p904
(dp905
g3
F1.67
sg4
F2.77
sg5
F2.1
sg6
F5.51
sg7
F7.26
sg8
F7.38
sg9
F88.0
ssS'kind'
p906
(dp907
g3
F1.39
sg4
F2.62
sg5
F2.63
sg6
F4.3
sg7
F7.82
sg8
F5.67
sg9
F5.0
ssS'silli'
p908
(dp909
g3
F1.8
sg4
F2.38
sg5
F2.09
sg6
F5.88
sg7
F7.41
sg8
F6.0
sg9
F15.0
ssS'perfum'
p910
(dp911
g3
F1.48
sg4
F2.36
sg5
F1.69
sg6
F5.05
sg7
F6.76
sg8
F5.93
sg9
F10.0
ssS'coward'
p912
(dp913
g3
F1.64
sg4
F2.19
sg5
F1.61
sg6
F4.07
sg7
F2.74
sg8
F2.83
sg9
F8.0
ssS'tree'
p914
(dp915
g3
F1.56
sg4
F2.21
sg5
F2.29
sg6
F3.42
sg7
F6.32
sg8
F5.08
sg9
F59.0
ssS'bed'
p916
(dp917
g3
F1.38
sg4
F2.56
sg5
F1.78
sg6
F3.61
sg7
F7.51
sg8
F6.88
sg9
F127.0
ssS'bee'
p918
(dp919
g3
F2.07
sg4
F2.14
sg5
F2.11
sg6
F6.51
sg7
F3.2
sg8
F4.16
sg9
F15.0
ssS'youth'
p920
(dp921
g3
F2.29
sg4
F2.52
sg5
F2.55
sg6
F5.67
sg7
F6.75
sg8
F5.11
sg9
F82.0
ssS'bride'
p922
(dp923
g3
F1.71
sg4
F2.74
sg5
F2.36
sg6
F5.55
sg7
F7.34
sg8
F5.74
sg9
F33.0
ssS'firework'
p924
(dp925
g3
F1.5
sg4
F2.12
sg5
F1.98
sg6
F6.67
sg7
F7.55
sg8
F5.51
sg9
F5.0
ssS'iron'
p926
(dp927
g3
F1.02
sg4
F2.06
sg5
F1.27
sg6
F3.76
sg7
F4.9
sg8
F5.1
sg9
F43.0
ssS'sooth'
p928
(dp929
g3
F1.85
sg4
F3.08
sg5
F2.24
sg6
F4.4
sg7
F7.3
sg8
F5.36
sg9
F2.0
ssS'kitten'
p930
(dp931
g3
F2.13
sg4
F2.45
sg5
F2.01
sg6
F5.08
sg7
F6.86
sg8
F6.86
sg9
F5.0
ssS'weapon'
p932
(dp933
g3
F1.92
sg4
F1.89
sg5
F2.61
sg6
F6.03
sg7
F3.97
sg8
F5.19
sg9
F42.0
ssS'solemn'
p934
(dp935
g3
F1.51
sg4
F1.95
sg5
F1.87
sg6
F3.56
sg7
F4.32
sg8
F4.61
sg9
F12.0
ssS'mountain'
p936
(dp937
g3
F1.66
sg4
F2.43
sg5
F2.36
sg6
F5.49
sg7
F6.59
sg8
F5.46
sg9
F33.0
ssS'comput'
p938
(dp939
g3
F1.61
sg4
F1.93
sg5
F1.99
sg6
F4.75
sg7
F6.24
sg8
F5.29
sg9
F13.0
ssS'beggar'
p940
(dp941
g3
F2.02
sg4
F2.45
sg5
F2.38
sg6
F4.91
sg7
F3.22
sg8
F4.09
sg9
F2.0
ssS'terribl'
p942
(dp943
g3
F1.44
sg4
F2.44
sg5
F2.34
sg6
F6.27
sg7
F1.93
sg8
F3.58
sg9
F45.0
ssS'runner'
p944
(dp945
g3
F1.91
sg4
F2.4
sg5
F1.84
sg6
F4.76
sg7
F5.67
sg8
F5.47
sg9
F1.0
ssS'revolt'
p946
(dp947
g3
F1.78
sg4
F2.34
sg5
F2.11
sg6
F6.56
sg7
F4.13
sg8
F6.18
sg9
F8.0
ssS'reunion'
p948
(dp949
g3
F2.45
sg4
F2.35
sg5
F1.95
sg6
F6.34
sg7
F6.48
sg8
F5.64
sg9
F11.0
ssS'mind'
p950
(dp951
g3
F1.84
sg4
F2.68
sg5
F2.19
sg6
F5.0
sg7
F6.68
sg8
F6.37
sg9
F325.0
ssS'lice'
p952
(dp953
g3
F1.78
sg4
F2.26
sg5
F2.29
sg6
F5.0
sg7
F2.31
sg8
F3.95
sg9
F2.0
ssS'alley'
p954
(dp955
g3
F1.97
sg4
F2.42
sg5
F1.7
sg6
F4.91
sg7
F4.48
sg8
F4.0
sg9
F8.0
ssS'sad'
p956
(dp957
g3
F0.95
sg4
F2.38
sg5
F2.18
sg6
F4.13
sg7
F1.61
sg8
F3.45
sg9
F35.0
ssS'crucifi'
p958
(dp959
g3
F1.72
sg4
F2.47
sg5
F2.48
sg6
F6.47
sg7
F2.23
sg8
F3.74
sg9
F2.0
ssS'tender'
p960
(dp961
g3
F1.28
sg4
F2.3
sg5
F1.75
sg6
F4.88
sg7
F6.93
sg8
F5.33
sg9
F11.0
ssS'rat'
p962
(dp963
g3
F1.66
sg4
F2.36
sg5
F2.14
sg6
F4.95
sg7
F3.02
sg8
F4.55
sg9
F6.0
ssS'caress'
p964
(dp965
g3
F1.16
sg4
F3.0
sg5
F2.13
sg6
F5.14
sg7
F7.84
sg8
F5.83
sg9
F1.0
ssS'manner'
p966
(dp967
g3
F1.34
sg4
F1.78
sg5
F1.83
sg6
F4.56
sg7
F5.64
sg8
F5.05
sg9
F124.0
ssS'blond'
p968
(dp969
g3
F2.04
sg4
F2.7
sg5
F1.67
sg6
F5.07
sg7
F6.43
sg8
F5.74
sg9
F11.0
ssS'tabl'
p970
(dp971
g3
F0.72
sg4
F2.16
sg5
F1.66
sg6
F2.92
sg7
F5.22
sg8
F4.47
sg9
F198.0
ssS'anger'
p972
(dp973
g3
F1.32
sg4
F1.91
sg5
F2.82
sg6
F7.63
sg7
F2.34
sg8
F5.5
sg9
F48.0
ssS'stomach'
p974
(dp975
g3
F2.06
sg4
F2.49
sg5
F1.85
sg6
F3.93
sg7
F4.82
sg8
F4.68
sg9
F37.0
ssS'morgu'
p976
(dp977
g3
F1.32
sg4
F2.96
sg5
F1.94
sg6
F4.84
sg7
F1.92
sg8
F3.61
sg9
F1.0
ssS'tidi'
p978
(dp979
g3
F1.56
sg4
F2.22
sg5
F1.93
sg6
F3.98
sg7
F6.3
sg8
F5.49
sg9
F1.0
ssS'smallpox'
p980
(dp981
g3
F2.08
sg4
F2.13
sg5
F2.17
sg6
F5.58
sg7
F2.52
sg8
F4.29
sg9
F2.0
ssS'imagin'
p982
(dp983
g3
F1.52
sg4
F2.14
sg5
F1.99
sg6
F5.98
sg7
F7.32
sg8
F7.07
sg9
F61.0
ssS'bastard'
p984
(dp985
g3
F2.16
sg4
F2.15
sg5
F2.4
sg6
F6.07
sg7
F3.36
sg8
F4.17
sg9
F12.0
ssS'afraid'
p986
(dp987
g3
F1.28
sg4
F2.54
sg5
F2.63
sg6
F6.67
sg7
F2.0
sg8
F3.98
sg9
F57.0
ssS'engin'
p988
(dp989
g3
F1.18
sg4
F2.33
sg5
F1.77
sg6
F3.98
sg7
F5.2
sg8
F5.0
sg9
F50.0
ssS'luxuri'
p990
(dp991
g3
F1.49
sg4
F2.91
sg5
F2.45
sg6
F4.75
sg7
F7.88
sg8
F6.4
sg9
F21.0
ssS'terrif'
p992
(dp993
g3
F1.12
sg4
F2.73
sg5
F2.15
sg6
F6.23
sg7
F8.16
sg8
F6.6
sg9
F5.0
ssS'person'
p994
(dp995
g3
F1.74
sg4
F2.45
sg5
F2.02
sg6
F4.19
sg7
F6.32
sg8
F5.35
sg9
F175.0
ssS'gripe'
p996
(dp997
g3
F1.56
sg4
F2.19
sg5
F1.79
sg6
F5.0
sg7
F3.14
sg8
F4.67
sg9
F0.0
ssS'snow'
p998
(dp999
g3
F1.83
sg4
F2.47
sg5
F1.97
sg6
F5.75
sg7
F7.08
sg8
F5.8
sg9
F59.0
ssS'diver'
p1000
(dp1001
g3
F1.55
sg4
F2.1
sg5
F1.91
sg6
F5.04
sg7
F6.45
sg8
F5.04
sg9
F1.0
ssS'build'
p1002
(dp1003
g3
F1.15
sg4
F1.94
sg5
F1.57
sg6
F3.92
sg7
F5.29
sg8
F5.25
sg9
F160.0
ssS'poster'
p1004
(dp1005
g3
F1.75
sg4
F2.56
sg5
F1.87
sg6
F3.93
sg7
F5.34
sg8
F4.91
sg9
F4.0
ssS'snob'
p1006
(dp1007
g3
F1.81
sg4
F2.36
sg5
F2.25
sg6
F5.65
sg7
F3.36
sg8
F5.11
sg9
F1.0
ssS'destroy'
p1008
(dp1009
g3
F2.03
sg4
F2.38
sg5
F2.86
sg6
F6.83
sg7
F2.64
sg8
F4.94
sg9
F48.0
ssS'writer'
p1010
(dp1011
g3
F1.9
sg4
F2.45
sg5
F1.84
sg6
F4.33
sg7
F5.52
sg8
F4.73
sg9
F73.0
ssS'excit'
p1012
(dp1013
g3
F2.2
sg4
F1.91
sg5
F2.17
sg6
F7.67
sg7
F7.5
sg8
F6.18
sg9
F32.0
ssS'war'
p1014
(dp1015
g3
F1.91
sg4
F2.16
sg5
F3.0
sg6
F7.49
sg7
F2.08
sg8
F4.5
sg9
F464.0
ssS'pain'
p1016
(dp1017
g3
F1.81
sg4
F2.49
sg5
F2.53
sg6
F6.5
sg7
F2.13
sg8
F3.71
sg9
F88.0
ssS'tornado'
p1018
(dp1019
g3
F1.78
sg4
F2.49
sg5
F2.42
sg6
F6.83
sg7
F2.55
sg8
F4.3
sg9
F1.0
ssS'stupid'
p1020
(dp1021
g3
F1.37
sg4
F2.71
sg5
F2.18
sg6
F4.72
sg7
F2.31
sg8
F2.98
sg9
F24.0
ssS'butterfli'
p1022
(dp1023
g3
F1.2
sg4
F2.39
sg5
F2.27
sg6
F3.47
sg7
F7.17
sg8
F4.65
sg9
F2.0
ssS'offend'
p1024
(dp1025
g3
F1.5
sg4
F2.06
sg5
F2.03
sg6
F5.56
sg7
F2.76
sg8
F3.73
sg9
F4.0
ssS'assault'
p1026
(dp1027
g3
F1.55
sg4
F2.28
sg5
F3.1
sg6
F7.51
sg7
F2.03
sg8
F3.94
sg9
F15.0
ssS'charm'
p1028
(dp1029
g3
F1.58
sg4
F2.25
sg5
F2.25
sg6
F5.16
sg7
F6.77
sg8
F5.57
sg9
F26.0
ssS'abus'
p1030
(dp1031
g3
F1.23
sg4
F2.7
sg5
F2.94
sg6
F6.83
sg7
F1.8
sg8
F3.69
sg9
F18.0
ssS'letter'
p1032
(dp1033
g3
F1.59
sg4
F2.37
sg5
F1.48
sg6
F4.9
sg7
F6.61
sg8
F5.73
sg9
F145.0
ssS'rifl'
p1034
(dp1035
g3
F2.76
sg4
F2.04
sg5
F2.71
sg6
F6.35
sg7
F4.02
sg8
F4.16
sg9
F63.0
ssS'phase'
p1036
(dp1037
g3
F0.79
sg4
F1.82
sg5
F1.72
sg6
F3.98
sg7
F5.17
sg8
F4.65
sg9
F72.0
ssS'awe'
p1038
(dp1039
g3
F1.38
sg4
F2.31
sg5
F2.03
sg6
F5.74
sg7
F6.7
sg8
F5.3
sg9
F5.0
ssS'coin'
p1040
(dp1041
g3
F1.96
sg4
F2.48
sg5
F1.68
sg6
F4.29
sg7
F6.02
sg8
F5.66
sg9
F10.0
ssS'lawn'
p1042
(dp1043
g3
F0.86
sg4
F1.79
sg5
F1.11
sg6
F4.0
sg7
F5.24
sg8
F5.37
sg9
F15.0
ssS'excus'
p1044
(dp1045
g3
F1.41
sg4
F2.29
sg5
F2.1
sg6
F4.48
sg7
F4.05
sg8
F4.07
sg9
F27.0
ssS'rescu'
p1046
(dp1047
g3
F1.24
sg4
F2.56
sg5
F2.29
sg6
F6.53
sg7
F7.7
sg8
F6.45
sg9
F15.0
ssS'dream'
p1048
(dp1049
g3
F1.75
sg4
F2.72
sg5
F1.98
sg6
F4.53
sg7
F6.73
sg8
F5.53
sg9
F64.0
ssS'proud'
p1050
(dp1051
g3
F1.56
sg4
F3.01
sg5
F2.73
sg6
F5.56
sg7
F8.03
sg8
F6.74
sg9
F50.0
ssS'metal'
p1052
(dp1053
g3
F1.17
sg4
F1.96
sg5
F1.4
sg6
F3.79
sg7
F4.95
sg8
F5.38
sg9
F61.0
ssS'dog'
p1054
(dp1055
g3
F1.66
sg4
F2.5
sg5
F2.1
sg6
F5.76
sg7
F7.57
sg8
F6.25
sg9
F75.0
ssS'destruct'
p1056
(dp1057
g3
F2.44
sg4
F2.71
sg5
F2.29
sg6
F5.82
sg7
F3.16
sg8
F3.93
sg9
F38.0
ssS'face'
p1058
(dp1059
g3
F1.6
sg4
F2.18
sg5
F1.58
sg6
F5.04
sg7
F6.39
sg8
F5.67
sg9
F371.0
ssS'dummi'
p1060
(dp1061
g3
F1.7
sg4
F2.25
sg5
F2.02
sg6
F4.35
sg7
F3.38
sg8
F3.67
sg9
F3.0
ssS'part'
p1062
(dp1063
g3
F1.78
sg4
F2.24
sg5
F1.59
sg6
F3.82
sg7
F5.11
sg8
F4.75
sg9
F500.0
ssS'sunset'
p1064
(dp1065
g3
F1.72
sg4
F2.99
sg5
F2.08
sg6
F4.2
sg7
F7.68
sg8
F5.66
sg9
F14.0
ssS'absurd'
p1066
(dp1067
g3
F1.82
sg4
F2.2
sg5
F1.72
sg6
F4.36
sg7
F4.26
sg8
F4.73
sg9
F17.0
ssS'tens'
p1068
(dp1069
g3
F1.36
sg4
F2.1
sg5
F2.02
sg6
F6.53
sg7
F3.56
sg8
F5.22
sg9
F15.0
ssS'barrel'
p1070
(dp1071
g3
F1.46
sg4
F2.28
sg5
F1.57
sg6
F3.36
sg7
F5.05
sg8
F4.89
sg9
F24.0
ssS'hungri'
p1072
(dp1073
g3
F2.01
sg4
F2.44
sg5
F2.05
sg6
F5.13
sg7
F3.58
sg8
F4.68
sg9
F23.0
ssS'nonchal'
p1074
(dp1075
g3
F1.11
sg4
F1.93
sg5
F1.54
sg6
F3.12
sg7
F4.74
sg8
F4.31
sg9
F1.0
ssS'taxi'
p1076
(dp1077
g3
F1.96
sg4
F2.14
sg5
F1.83
sg6
F3.41
sg7
F5.0
sg8
F4.64
sg9
F16.0
ssS'bomb'
p1078
(dp1079
g3
F1.19
sg4
F2.4
sg5
F2.88
sg6
F7.15
sg7
F2.1
sg8
F4.54
sg9
F36.0
ssS'ridicul'
p1080
(dp1081
g3
F2.24
sg4
F2.73
sg5
F2.7
sg6
F5.83
sg7
F3.13
sg8
F3.87
sg9
F5.0
ssS'gold'
p1082
(dp1083
g3
F1.63
sg4
F2.79
sg5
F2.46
sg6
F5.76
sg7
F7.54
sg8
F5.85
sg9
F52.0
ssS'elat'
p1084
(dp1085
g3
F1.77
sg4
F2.3
sg5
F2.35
sg6
F6.21
sg7
F7.45
sg8
F5.53
sg9
F3.0
ssS'orchestra'
p1086
(dp1087
g3
F1.89
sg4
F2.29
sg5
F2.14
sg6
F3.52
sg7
F6.02
sg8
F5.17
sg9
F60.0
ssS'melodi'
p1088
(dp1089
g3
F1.79
sg4
F2.52
sg5
F1.78
sg6
F4.98
sg7
F7.07
sg8
F5.46
sg9
F21.0
ssS'queen'
p1090
(dp1091
g3
F1.43
sg4
F2.18
sg5
F2.12
sg6
F4.76
sg7
F6.44
sg8
F5.49
sg9
F41.0
ssS'hairpin'
p1092
(dp1093
g3
F1.45
sg4
F2.41
sg5
F1.32
sg6
F3.27
sg7
F5.26
sg8
F5.05
sg9
F1.0
ssS'python'
p1094
(dp1095
g3
F2.48
sg4
F2.25
sg5
F2.56
sg6
F6.18
sg7
F4.05
sg8
F4.52
sg9
F14.0
ssS'bright'
p1096
(dp1097
g3
F1.55
sg4
F2.33
sg5
F1.82
sg6
F5.4
sg7
F7.5
sg8
F6.34
sg9
F87.0
ssS'radio'
p1098
(dp1099
g3
F1.47
sg4
F2.82
sg5
F1.85
sg6
F4.78
sg7
F6.73
sg8
F5.28
sg9
F120.0
ssS'ulcer'
p1100
(dp1101
g3
F1.17
sg4
F2.68
sg5
F2.22
sg6
F6.12
sg7
F1.78
sg8
F4.17
sg9
F5.0
ssS'corner'
p1102
(dp1103
g3
F1.21
sg4
F1.92
sg5
F1.66
sg6
F3.91
sg7
F4.36
sg8
F4.12
sg9
F115.0
ssS'fear'
p1104
(dp1105
g3
F1.18
sg4
F2.28
sg5
F2.18
sg6
F6.33
sg7
F2.25
sg8
F3.64
sg9
F13.0
ssS'thermomet'
p1106
(dp1107
g3
F1.05
sg4
F2.02
sg5
F1.51
sg6
F3.79
sg7
F4.73
sg8
F4.39
sg9
F0.0
ssS'penalti'
p1108
(dp1109
g3
F1.56
sg4
F2.31
sg5
F1.97
sg6
F5.1
sg7
F2.83
sg8
F3.95
sg9
F14.0
ssS'cell'
p1110
(dp1111
g3
F1.7
sg4
F2.19
sg5
F2.13
sg6
F4.08
sg7
F3.82
sg8
F4.12
sg9
F65.0
ssS'ambit'
p1112
(dp1113
g3
F1.98
sg4
F2.92
sg5
F2.07
sg6
F5.61
sg7
F7.04
sg8
F6.93
sg9
F19.0
ssS'slow'
p1114
(dp1115
g3
F1.6
sg4
F2.22
sg5
F1.61
sg6
F3.39
sg7
F3.93
sg8
F4.35
sg9
F60.0
ssS'despis'
p1116
(dp1117
g3
F1.38
sg4
F2.43
sg5
F2.8
sg6
F6.28
sg7
F2.03
sg8
F4.72
sg9
F7.0
ssS'nervous'
p1118
(dp1119
g3
F1.47
sg4
F2.07
sg5
F1.73
sg6
F6.59
sg7
F3.29
sg8
F3.56
sg9
F24.0
ssS'window'
p1120
(dp1121
g3
F1.38
sg4
F2.01
sg5
F1.6
sg6
F3.97
sg7
F5.91
sg8
F4.91
sg9
F119.0
ssS'movi'
p1122
(dp1123
g3
F1.81
sg4
F2.54
sg5
F1.79
sg6
F4.93
sg7
F6.86
sg8
F5.0
sg9
F29.0
ssS'activ'
p1124
(dp1125
g3
F0.98
sg4
F2.56
sg5
F1.84
sg6
F4.86
sg7
F5.46
sg8
F5.43
sg9
F2.0
ssS'restaur'
p1126
(dp1127
g3
F1.85
sg4
F2.55
sg5
F1.41
sg6
F5.41
sg7
F6.76
sg8
F5.73
sg9
F41.0
ssS'crime'
p1128
(dp1129
g3
F2.06
sg4
F2.69
sg5
F2.24
sg6
F5.41
sg7
F2.89
sg8
F4.12
sg9
F34.0
ssS'black'
p1130
(dp1131
g3
F1.8
sg4
F2.24
sg5
F1.79
sg6
F4.61
sg7
F5.39
sg8
F5.14
sg9
F203.0
ssS'betray'
p1132
(dp1133
g3
F1.02
sg4
F2.06
sg5
F2.97
sg6
F7.24
sg7
F1.68
sg8
F4.92
sg9
F4.0
ssS'disgust'
p1134
(dp1135
g3
F1.41
sg4
F2.59
sg5
F1.94
sg6
F5.42
sg7
F2.45
sg8
F4.34
sg9
F6.0
ssS'inhabit'
p1136
(dp1137
g3
F1.34
sg4
F1.97
sg5
F1.43
sg6
F3.95
sg7
F5.05
sg8
F5.37
sg9
F0.0
ssS'hope'
p1138
(dp1139
g3
F1.46
sg4
F2.09
sg5
F1.92
sg6
F5.78
sg7
F7.1
sg8
F5.41
sg9
F12.0
ssS'vigor'
p1140
(dp1141
g3
F1.54
sg4
F2.66
sg5
F2.22
sg6
F5.9
sg7
F6.79
sg8
F5.41
sg9
F29.0
ssS'hit'
p1142
(dp1143
g3
F2.35
sg4
F2.09
sg5
F2.01
sg6
F5.73
sg7
F4.33
sg8
F4.88
sg9
F115.0
ssS'cannon'
p1144
(dp1145
g3
F2.2
sg4
F2.84
sg5
F2.29
sg6
F4.71
sg7
F4.9
sg8
F5.17
sg9
F7.0
ssS'nasti'
p1146
(dp1147
g3
F2.38
sg4
F2.5
sg5
F2.17
sg6
F4.89
sg7
F3.58
sg8
F5.0
sg9
F5.0
ssS'rock'
p1148
(dp1149
g3
F1.38
sg4
F2.37
sg5
F2.01
sg6
F4.52
sg7
F5.56
sg8
F5.15
sg9
F75.0
ssS'watch'
p1150
(dp1151
g3
F1.51
sg4
F2.12
sg5
F1.75
sg6
F4.1
sg7
F5.78
sg8
F5.37
sg9
F81.0
ssS'coast'
p1152
(dp1153
g3
F1.86
sg4
F2.31
sg5
F1.71
sg6
F4.59
sg7
F5.98
sg8
F5.67
sg9
F61.0
ssS'famous'
p1154
(dp1155
g3
F2.07
sg4
F2.68
sg5
F2.18
sg6
F5.73
sg7
F6.98
sg8
F6.32
sg9
F89.0
ssS'breast'
p1156
(dp1157
g3
F1.78
sg4
F2.39
sg5
F2.27
sg6
F5.37
sg7
F6.5
sg8
F5.39
sg9
F11.0
ssS'salut'
p1158
(dp1159
g3
F1.57
sg4
F2.23
sg5
F2.05
sg6
F5.31
sg7
F5.92
sg8
F5.46
sg9
F3.0
ssS'silk'
p1160
(dp1161
g3
F1.27
sg4
F2.51
sg5
F1.93
sg6
F3.71
sg7
F6.9
sg8
F4.81
sg9
F12.0
ssS'banner'
p1162
(dp1163
g3
F0.83
sg4
F1.95
sg5
F1.57
sg6
F3.83
sg7
F5.4
sg8
F4.8
sg9
F8.0
ssS'lucki'
p1164
(dp1165
g3
F1.06
sg4
F2.34
sg5
F2.25
sg6
F6.53
sg7
F8.17
sg8
F6.05
sg9
F21.0
ssS'bar'
p1166
(dp1167
g3
F2.05
sg4
F2.83
sg5
F1.94
sg6
F5.0
sg7
F6.42
sg8
F5.47
sg9
F82.0
ssS'tobacco'
p1168
(dp1169
g3
F2.16
sg4
F2.9
sg5
F2.27
sg6
F4.83
sg7
F3.28
sg8
F4.08
sg9
F19.0
ssS'hostil'
p1170
(dp1171
g3
F1.5
sg4
F2.28
sg5
F2.58
sg6
F6.44
sg7
F2.73
sg8
F4.85
sg9
F19.0
ssS'machin'
p1172
(dp1173
g3
F1.67
sg4
F2.4
sg5
F2.06
sg6
F3.82
sg7
F5.09
sg8
F5.23
sg9
F103.0
ssS'method'
p1174
(dp1175
g3
F1.76
sg4
F2.58
sg5
F1.58
sg6
F3.85
sg7
F5.56
sg8
F5.67
sg9
F142.0
ssS'yacht'
p1176
(dp1177
g3
F1.79
sg4
F2.72
sg5
F2.13
sg6
F5.61
sg7
F6.95
sg8
F6.1
sg9
F4.0
ssS'priest'
p1178
(dp1179
g3
F2.0
sg4
F2.71
sg5
F2.07
sg6
F4.41
sg7
F6.42
sg8
F4.88
sg9
F16.0
ssS'rollercoast'
p1180
(dp1181
g3
F1.63
sg4
F1.71
sg5
F2.76
sg6
F8.06
sg7
F8.02
sg8
F5.1
sg9
F0.0
ssS'shi'
p1182
(dp1183
g3
F1.83
sg4
F2.29
sg5
F1.96
sg6
F3.77
sg7
F4.64
sg8
F3.44
sg9
F13.0
ssS'river'
p1184
(dp1185
g3
F1.69
sg4
F2.42
sg5
F1.86
sg6
F4.51
sg7
F6.85
sg8
F5.1
sg9
F165.0
ssS'vision'
p1186
(dp1187
g3
F1.84
sg4
F2.43
sg5
F1.96
sg6
F4.66
sg7
F6.62
sg8
F6.02
sg9
F56.0
ssS'skijump'
p1188
(dp1189
g3
F1.73
sg4
F2.1
sg5
F2.32
sg6
F7.06
sg7
F7.06
sg8
F4.9
sg9
F0.0
ssS'vampir'
p1190
(dp1191
g3
F1.86
sg4
F2.35
sg5
F2.27
sg6
F6.37
sg7
F4.26
sg8
F5.05
sg9
F1.0
ssS'art'
p1192
(dp1193
g3
F2.1
sg4
F2.88
sg5
F2.33
sg6
F4.86
sg7
F6.68
sg8
F5.3
sg9
F208.0
ssS'victim'
p1194
(dp1195
g3
F1.48
sg4
F2.32
sg5
F2.04
sg6
F6.06
sg7
F2.18
sg8
F2.69
sg9
F27.0
ssS'dump'
p1196
(dp1197
g3
F1.87
sg4
F2.36
sg5
F1.87
sg6
F4.12
sg7
F3.21
sg8
F3.83
sg9
F4.0
ssS'habit'
p1198
(dp1199
g3
F1.77
sg4
F2.11
sg5
F1.79
sg6
F3.95
sg7
F4.11
sg8
F4.3
sg9
F23.0
ssS'overwhelm'
p1200
(dp1201
g3
F2.61
sg4
F2.37
sg5
F2.58
sg6
F7.0
sg7
F4.19
sg8
F3.89
sg9
F4.0
ssS'surgeri'
p1202
(dp1203
g3
F2.19
sg4
F2.32
sg5
F1.86
sg6
F6.35
sg7
F2.86
sg8
F2.75
sg9
F6.0
ssS'funer'
p1204
(dp1205
g3
F0.87
sg4
F3.21
sg5
F2.55
sg6
F4.94
sg7
F1.39
sg8
F2.97
sg9
F33.0
ssS'menac'
p1206
(dp1207
g3
F1.64
sg4
F2.45
sg5
F2.25
sg6
F5.52
sg7
F2.88
sg8
F4.98
sg9
F9.0
ssS'decompos'
p1208
(dp1209
g3
F1.81
sg4
F2.39
sg5
F1.91
sg6
F4.65
sg7
F3.2
sg8
F4.02
sg9
F1.0
ssS'seat'
p1210
(dp1211
g3
F0.98
sg4
F1.72
sg5
F1.88
sg6
F2.95
sg7
F4.95
sg8
F4.84
sg9
F54.0
ssS'nun'
p1212
(dp1213
g3
F1.89
sg4
F1.8
sg5
F1.69
sg6
F2.93
sg7
F4.93
sg8
F4.93
sg9
F2.0
ssS'immor'
p1214
(dp1215
g3
F2.16
sg4
F2.48
sg5
F2.33
sg6
F4.98
sg7
F3.5
sg8
F4.66
sg9
F5.0
ssS'lion'
p1216
(dp1217
g3
F1.99
sg4
F2.16
sg5
F2.33
sg6
F6.2
sg7
F5.57
sg8
F4.12
sg9
F17.0
ssS'histori'
p1218
(dp1219
g3
F2.01
sg4
F2.29
sg5
F2.08
sg6
F3.93
sg7
F5.24
sg8
F4.83
sg9
F286.0
ssS'troubl'
p1220
(dp1221
g3
F1.21
sg4
F2.36
sg5
F2.33
sg6
F5.94
sg7
F2.17
sg8
F3.91
sg9
F31.0
ssS'fragranc'
p1222
(dp1223
g3
F1.97
sg4
F2.54
sg5
F1.91
sg6
F4.79
sg7
F6.07
sg8
F5.14
sg9
F6.0
ssS'corrupt'
p1224
(dp1225
g3
F2.32
sg4
F2.35
sg5
F2.3
sg6
F4.67
sg7
F3.32
sg8
F4.64
sg9
F8.0
ssS'reserv'
p1226
(dp1227
g3
F1.83
sg4
F2.05
sg5
F1.93
sg6
F3.27
sg7
F4.88
sg8
F4.3
sg9
F27.0
ssS'hammer'
p1228
(dp1229
g3
F1.16
sg4
F2.02
sg5
F1.88
sg6
F4.58
sg7
F4.88
sg8
F4.75
sg9
F9.0
ssS'arm'
p1230
(dp1231
g3
F1.82
sg4
F2.4
sg5
F1.5
sg6
F3.59
sg7
F5.34
sg8
F5.07
sg9
F94.0
ssS'wonder'
p1232
(dp1233
g3
F1.58
sg4
F2.23
sg5
F2.17
sg6
F5.0
sg7
F6.03
sg8
F5.32
sg9
F67.0
ssS'intim'
p1234
(dp1235
g3
F1.51
sg4
F2.21
sg5
F2.29
sg6
F6.98
sg7
F7.61
sg8
F5.86
sg9
F21.0
ssS'statu'
p1236
(dp1237
g3
F0.7
sg4
F1.72
sg5
F1.4
sg6
F3.46
sg7
F5.17
sg8
F4.95
sg9
F17.0
ssS'limber'
p1238
(dp1239
g3
F1.49
sg4
F2.26
sg5
F1.84
sg6
F4.57
sg7
F5.68
sg8
F5.34
sg9
F2.0
ssS'infatu'
p1240
(dp1241
g3
F2.08
sg4
F1.87
sg5
F2.28
sg6
F7.02
sg7
F6.73
sg8
F4.9
sg9
F4.0
ssS'favor'
p1242
(dp1243
g3
F1.52
sg4
F1.86
sg5
F1.76
sg6
F4.54
sg7
F6.46
sg8
F5.67
sg9
F78.0
ssS'innoc'
p1244
(dp1245
g3
F1.34
sg4
F1.99
sg5
F2.08
sg6
F4.21
sg7
F6.51
sg8
F5.28
sg9
F37.0
ssS'outstand'
p1246
(dp1247
g3
F1.75
sg4
F2.59
sg5
F2.29
sg6
F6.24
sg7
F7.75
sg8
F6.4
sg9
F37.0
ssS'finger'
p1248
(dp1249
g3
F1.42
sg4
F2.42
sg5
F1.7
sg6
F3.78
sg7
F5.29
sg8
F5.05
sg9
F40.0
ssS'crude'
p1250
(dp1251
g3
F1.65
sg4
F2.37
sg5
F1.94
sg6
F5.07
sg7
F3.12
sg8
F4.27
sg9
F15.0
ssS'progress'
p1252
(dp1253
g3
F1.34
sg4
F2.58
sg5
F2.05
sg6
F6.02
sg7
F7.73
sg8
F6.76
sg9
F120.0
ssS'pistol'
p1254
(dp1255
g3
F2.58
sg4
F2.19
sg5
F2.77
sg6
F6.15
sg7
F4.2
sg8
F5.05
sg9
F27.0
ssS'mildew'
p1256
(dp1257
g3
F1.36
sg4
F1.79
sg5
F1.79
sg6
F4.08
sg7
F3.17
sg8
F4.4
sg9
F1.0
ssS'hardship'
p1258
(dp1259
g3
F1.61
sg4
F2.55
sg5
F2.4
sg6
F4.76
sg7
F2.45
sg8
F4.22
sg9
F9.0
ssS'merri'
p1260
(dp1261
g3
F1.49
sg4
F2.42
sg5
F1.66
sg6
F5.9
sg7
F7.9
sg8
F6.64
sg9
F8.0
ssS'joy'
p1262
(dp1263
g3
F1.22
sg4
F2.54
sg5
F1.8
sg6
F5.98
sg7
F8.22
sg8
F6.6
sg9
F1.0
ssS'lazi'
p1264
(dp1265
g3
F2.02
sg4
F2.06
sg5
F1.93
sg6
F2.65
sg7
F4.38
sg8
F4.07
sg9
F9.0
ssS'death'
p1266
(dp1267
g3
F1.4
sg4
F3.07
sg5
F2.5
sg6
F4.59
sg7
F1.61
sg8
F3.47
sg9
F277.0
ssS'key'
p1268
(dp1269
g3
F1.62
sg4
F2.18
sg5
F2.04
sg6
F3.7
sg7
F5.68
sg8
F4.98
sg9
F88.0
ssS'news'
p1270
(dp1271
g3
F1.67
sg4
F2.11
sg5
F1.88
sg6
F5.17
sg7
F5.3
sg8
F4.6
sg9
F102.0
ssS'debt'
p1272
(dp1273
g3
F1.17
sg4
F2.74
sg5
F2.16
sg6
F5.68
sg7
F2.22
sg8
F3.02
sg9
F13.0
ssS'lawsuit'
p1274
(dp1275
g3
F2.0
sg4
F2.44
sg5
F2.02
sg6
F4.93
sg7
F3.37
sg8
F3.92
sg9
F1.0
ssS'nuisanc'
p1276
(dp1277
g3
F1.86
sg4
F2.69
sg5
F1.73
sg6
F4.49
sg7
F3.27
sg8
F4.36
sg9
F5.0
ssS'weari'
p1278
(dp1279
g3
F2.12
sg4
F2.29
sg5
F1.91
sg6
F3.81
sg7
F3.79
sg8
F4.0
sg9
F17.0
ssS'satisfi'
p1280
(dp1281
g3
F1.19
sg4
F2.63
sg5
F2.37
sg6
F4.94
sg7
F7.94
sg8
F6.14
sg9
F36.0
ssS'protect'
p1282
(dp1283
g3
F1.79
sg4
F2.77
sg5
F2.54
sg6
F4.09
sg7
F7.29
sg8
F5.8
sg9
F31.0
ssS'knowledg'
p1284
(dp1285
g3
F1.32
sg4
F2.32
sg5
F2.41
sg6
F5.92
sg7
F7.58
sg8
F6.78
sg9
F145.0
ssS'cow'
p1286
(dp1287
g3
F1.53
sg4
F2.13
sg5
F1.61
sg6
F3.49
sg7
F5.57
sg8
F5.32
sg9
F29.0
ssS'disdain'
p1288
(dp1289
g3
F1.9
sg4
F2.14
sg5
F1.92
sg6
F5.04
sg7
F3.68
sg8
F4.55
sg9
F2.0
ssS'fault'
p1290
(dp1291
g3
F1.38
sg4
F1.69
sg5
F1.66
sg6
F4.07
sg7
F3.43
sg8
F4.02
sg9
F22.0
ssS'ill'
p1292
(dp1293
g3
F1.4
sg4
F2.24
sg5
F1.85
sg6
F4.71
sg7
F2.48
sg8
F3.21
sg9
F20.0
ssS'wed'
p1294
(dp1295
g3
F1.56
sg4
F2.85
sg5
F2.08
sg6
F5.97
sg7
F7.82
sg8
F6.68
sg9
F32.0
ssS'alon'
p1296
(dp1297
g3
F1.77
sg4
F2.66
sg5
F2.42
sg6
F4.83
sg7
F2.41
sg8
F3.7
sg9
F195.0
ssS'quiet'
p1298
(dp1299
g3
F1.83
sg4
F2.13
sg5
F2.3
sg6
F2.82
sg7
F5.58
sg8
F4.42
sg9
F76.0
ssS'piti'
p1300
(dp1301
g3
F1.57
sg4
F2.02
sg5
F1.82
sg6
F3.72
sg7
F3.37
sg8
F4.12
sg9
F14.0
ssS'honey'
p1302
(dp1303
g3
F1.7
sg4
F2.25
sg5
F1.47
sg6
F4.51
sg7
F6.73
sg8
F5.44
sg9
F25.0
ssS'admir'
p1304
(dp1305
g3
F1.84
sg4
F2.36
sg5
F1.94
sg6
F6.11
sg7
F7.74
sg8
F7.53
sg9
F17.0
ssS'context'
p1306
(dp1307
g3
F1.38
sg4
F2.24
sg5
F1.39
sg6
F4.22
sg7
F5.2
sg8
F5.17
sg9
F2.0
ssS'improv'
p1308
(dp1309
g3
F1.16
sg4
F2.15
sg5
F2.25
sg6
F5.69
sg7
F7.65
sg8
F6.08
sg9
F39.0
ssS'murder'
p1310
(dp1311
g3
F0.96
sg4
F2.18
sg5
F3.06
sg6
F7.47
sg7
F1.53
sg8
F3.77
sg9
F19.0
ssS'jelli'
p1312
(dp1313
g3
F1.44
sg4
F2.29
sg5
F1.77
sg6
F3.7
sg7
F5.66
sg8
F4.53
sg9
F3.0
ssS'distress'
p1314
(dp1315
g3
F1.1
sg4
F2.38
sg5
F2.41
sg6
F6.4
sg7
F1.94
sg8
F3.76
sg9
F4.0
ssS'cancer'
p1316
(dp1317
g3
F0.85
sg4
F2.83
sg5
F2.99
sg6
F6.42
sg7
F1.5
sg8
F3.42
sg9
F25.0
ssS'applianc'
p1318
(dp1319
g3
F1.21
sg4
F2.06
sg5
F1.34
sg6
F4.05
sg7
F5.1
sg8
F5.05
sg9
F5.0
ssS'inspir'
p1320
(dp1321
g3
F1.85
sg4
F2.67
sg5
F2.31
sg6
F6.02
sg7
F7.15
sg8
F6.67
sg9
F25.0
ssS'spank'
p1322
(dp1323
g3
F2.54
sg4
F2.73
sg5
F2.51
sg6
F5.41
sg7
F3.55
sg8
F3.91
sg9
F0.0
ssS'pamphlet'
p1324
(dp1325
g3
F1.05
sg4
F2.02
sg5
F1.48
sg6
F3.62
sg7
F4.79
sg8
F4.63
sg9
F3.0
ssS'dancer'
p1326
(dp1327
g3
F1.56
sg4
F2.2
sg5
F1.93
sg6
F6.0
sg7
F7.14
sg8
F6.02
sg9
F31.0
ssS'church'
p1328
(dp1329
g3
F2.31
sg4
F2.45
sg5
F2.42
sg6
F4.34
sg7
F6.28
sg8
F5.0
sg9
F348.0
ssS'cyclon'
p1330
(dp1331
g3
F2.38
sg4
F2.89
sg5
F2.56
sg6
F6.36
sg7
F3.6
sg8
F4.89
sg9
F0.0
ssS'mistak'
p1332
(dp1333
g3
F1.79
sg4
F2.42
sg5
F2.42
sg6
F5.18
sg7
F2.86
sg8
F3.86
sg9
F34.0
ssS'trumpet'
p1334
(dp1335
g3
F1.38
sg4
F2.13
sg5
F1.72
sg6
F4.97
sg7
F5.75
sg8
F4.57
sg9
F7.0
ssS'trust'
p1336
(dp1337
g3
F2.71
sg4
F2.66
sg5
F2.04
sg6
F5.3
sg7
F6.68
sg8
F6.61
sg9
F52.0
ssS'damag'
p1338
(dp1339
g3
F1.65
sg4
F2.26
sg5
F1.86
sg6
F5.57
sg7
F3.05
sg8
F3.88
sg9
F33.0
ssS'bathroom'
p1340
(dp1341
g3
F1.36
sg4
F1.72
sg5
F1.59
sg6
F3.88
sg7
F5.55
sg8
F5.65
sg9
F18.0
ssS'devil'
p1342
(dp1343
g3
F1.99
sg4
F2.61
sg5
F2.75
sg6
F6.07
sg7
F2.21
sg8
F5.35
sg9
F25.0
ssS'filth'
p1344
(dp1345
g3
F1.68
sg4
F2.32
sg5
F2.06
sg6
F5.12
sg7
F2.47
sg8
F3.81
sg9
F2.0
ssS'angel'
p1346
(dp1347
g3
F1.58
sg4
F2.63
sg5
F2.34
sg6
F4.83
sg7
F7.53
sg8
F4.97
sg9
F18.0
ssS'coupl'
p1348
(dp1349
g3
F1.97
sg4
F2.31
sg5
F2.28
sg6
F6.39
sg7
F7.41
sg8
F6.02
sg9
F122.0
ssS'hay'
p1350
(dp1351
g3
F1.24
sg4
F2.58
sg5
F1.64
sg6
F3.95
sg7
F5.24
sg8
F5.37
sg9
F19.0
ssS'shriek'
p1352
(dp1353
g3
F2.22
sg4
F2.91
sg5
F1.86
sg6
F5.36
sg7
F3.93
sg8
F4.3
sg9
F5.0
ssS'suicid'
p1354
(dp1355
g3
F0.69
sg4
F3.14
sg5
F3.02
sg6
F5.73
sg7
F1.25
sg8
F3.58
sg9
F17.0
ssS'teacher'
p1356
(dp1357
g3
F2.12
sg4
F2.61
sg5
F2.2
sg6
F4.05
sg7
F5.68
sg8
F5.11
sg9
F80.0
ssS'shame'
p1358
(dp1359
g3
F1.34
sg4
F2.27
sg5
F1.94
sg6
F4.88
sg7
F2.5
sg8
F2.98
sg9
F1.0
ssS'guillotin'
p1360
(dp1361
g3
F2.11
sg4
F2.54
sg5
F2.63
sg6
F6.56
sg7
F2.48
sg8
F4.64
sg9
F0.0
ssS'treat'
p1362
(dp1363
g3
F1.38
sg4
F2.25
sg5
F1.82
sg6
F5.62
sg7
F7.36
sg8
F5.78
sg9
F26.0
ssS'interest'
p1364
(dp1365
g3
F1.53
sg4
F2.26
sg5
F1.78
sg6
F5.66
sg7
F6.97
sg8
F5.88
sg9
F330.0
ssS'ocean'
p1366
(dp1367
g3
F1.72
sg4
F2.79
sg5
F2.75
sg6
F4.95
sg7
F7.12
sg8
F5.53
sg9
F34.0
ssS'curtain'
p1368
(dp1369
g3
F0.83
sg4
F1.83
sg5
F1.56
sg6
F3.67
sg7
F4.83
sg8
F5.05
sg9
F8.0
ssS'muddi'
p1370
(dp1371
g3
F2.07
sg4
F2.13
sg5
F1.77
sg6
F4.13
sg7
F4.44
sg8
F4.73
sg9
F10.0
ssS'warmth'
p1372
(dp1373
g3
F1.81
sg4
F2.4
sg5
F1.67
sg6
F3.73
sg7
F7.41
sg8
F5.61
sg9
F28.0
ssS'idol'
p1374
(dp1375
g3
F1.86
sg4
F2.14
sg5
F2.17
sg6
F4.95
sg7
F6.12
sg8
F5.37
sg9
F7.0
ssS'tank'
p1376
(dp1377
g3
F1.87
sg4
F1.86
sg5
F1.93
sg6
F4.88
sg7
F5.16
sg8
F4.78
sg9
F12.0
ssS'detach'
p1378
(dp1379
g3
F1.88
sg4
F2.57
sg5
F2.15
sg6
F4.26
sg7
F3.86
sg8
F3.63
sg9
F12.0
ssS'windmil'
p1380
(dp1381
g3
F1.65
sg4
F2.13
sg5
F1.04
sg6
F3.74
sg7
F5.6
sg8
F5.24
sg9
F1.0
ssS'champion'
p1382
(dp1383
g3
F0.9
sg4
F3.15
sg5
F2.85
sg6
F5.85
sg7
F8.44
sg8
F6.5
sg9
F23.0
ssS'mushroom'
p1384
(dp1385
g3
F2.22
sg4
F2.33
sg5
F2.1
sg6
F4.72
sg7
F5.78
sg8
F5.52
sg9
F2.0
ssS'fire'
p1386
(dp1387
g3
F2.06
sg4
F2.06
sg5
F2.49
sg6
F7.17
sg7
F3.22
sg8
F4.49
sg9
F187.0
ssS'infect'
p1388
(dp1389
g3
F1.34
sg4
F2.77
sg5
F2.64
sg6
F5.03
sg7
F1.66
sg8
F3.61
sg9
F8.0
ssS'toy'
p1390
(dp1391
g3
F2.01
sg4
F2.84
sg5
F1.84
sg6
F5.11
sg7
F7.0
sg8
F6.09
sg9
F4.0
ssS'pie'
p1392
(dp1393
g3
F1.89
sg4
F2.4
sg5
F1.78
sg6
F4.2
sg7
F6.41
sg8
F5.35
sg9
F14.0
ssS'slap'
p1394
(dp1395
g3
F1.79
sg4
F2.58
sg5
F2.29
sg6
F6.46
sg7
F2.95
sg8
F4.21
sg9
F2.0
ssS'child'
p1396
(dp1397
g3
F1.98
sg4
F2.29
sg5
F2.3
sg6
F5.55
sg7
F7.08
sg8
F5.1
sg9
F213.0
ssS'ador'
p1398
(dp1399
g3
F1.24
sg4
F2.71
sg5
F2.48
sg6
F5.12
sg7
F7.81
sg8
F5.74
sg9
F3.0
ssS'talent'
p1400
(dp1401
g3
F1.25
sg4
F1.8
sg5
F1.75
sg6
F6.27
sg7
F7.56
sg8
F6.49
sg9
F40.0
ssS'educ'
p1402
(dp1403
g3
F1.77
sg4
F2.46
sg5
F2.35
sg6
F5.74
sg7
F6.69
sg8
F6.15
sg9
F214.0
ssS'spirit'
p1404
(dp1405
g3
F1.32
sg4
F2.62
sg5
F2.42
sg6
F5.56
sg7
F7.0
sg8
F5.82
sg9
F182.0
ssS'present'
p1406
(dp1407
g3
F1.85
sg4
F2.39
sg5
F1.78
sg6
F5.12
sg7
F6.95
sg8
F5.83
sg9
F377.0
ssS'kerchief'
p1408
(dp1409
g3
F1.33
sg4
F2.08
sg5
F1.28
sg6
F3.43
sg7
F5.11
sg8
F5.25
sg9
F1.0
ssS'ident'
p1410
(dp1411
g3
F1.99
sg4
F2.24
sg5
F1.89
sg6
F4.95
sg7
F6.57
sg8
F6.4
sg9
F55.0
ssS'fur'
p1412
(dp1413
g3
F1.88
sg4
F2.44
sg5
F1.97
sg6
F4.18
sg7
F4.51
sg8
F4.32
sg9
F13.0
ssS'leprosi'
p1414
(dp1415
g3
F1.4
sg4
F2.23
sg5
F2.3
sg6
F6.29
sg7
F2.09
sg8
F4.0
sg9
F1.0
ssS'carefre'
p1416
(dp1417
g3
F1.38
sg4
F2.84
sg5
F2.5
sg6
F4.17
sg7
F7.54
sg8
F5.78
sg9
F9.0
ssS'hat'
p1418
(dp1419
g3
F1.36
sg4
F2.0
sg5
F1.43
sg6
F4.1
sg7
F5.46
sg8
F5.39
sg9
F56.0
ssS'peac'
p1420
(dp1421
g3
F1.75
sg4
F2.55
sg5
F2.84
sg6
F2.95
sg7
F7.72
sg8
F5.45
sg9
F198.0
ssS'pungent'
p1422
(dp1423
g3
F2.09
sg4
F2.17
sg5
F1.52
sg6
F4.24
sg7
F3.95
sg8
F4.78
sg9
F4.0
ssS'cash'
p1424
(dp1425
g3
F1.0
sg4
F2.21
sg5
F2.39
sg6
F7.37
sg7
F8.37
sg8
F6.96
sg9
F36.0
ssS'air'
p1426
(dp1427
g3
F1.56
sg4
F2.3
sg5
F1.56
sg6
F4.12
sg7
F6.34
sg8
F5.1
sg9
F257.0
ssS'employ'
p1428
(dp1429
g3
F1.81
sg4
F2.12
sg5
F2.08
sg6
F5.28
sg7
F6.47
sg8
F5.73
sg9
F47.0
ssS'joke'
p1430
(dp1431
g3
F1.36
sg4
F1.84
sg5
F1.86
sg6
F6.74
sg7
F8.1
sg8
F6.15
sg9
F22.0
ssS'fun'
p1432
(dp1433
g3
F1.11
sg4
F2.01
sg5
F1.85
sg6
F7.22
sg7
F8.37
sg8
F6.8
sg9
F44.0
ssS'bathtub'
p1434
(dp1435
g3
F1.57
sg4
F2.59
sg5
F1.76
sg6
F4.36
sg7
F6.69
sg8
F5.76
sg9
F4.0
ssS'spider'
p1436
(dp1437
g3
F1.72
sg4
F2.21
sg5
F2.11
sg6
F5.71
sg7
F3.33
sg8
F4.75
sg9
F2.0
ssS'ecstasi'
p1438
(dp1439
g3
F1.52
sg4
F1.92
sg5
F2.08
sg6
F7.38
sg7
F7.98
sg8
F6.68
sg9
F6.0
ssS'stink'
p1440
(dp1441
g3
F1.79
sg4
F2.1
sg5
F1.98
sg6
F4.26
sg7
F3.0
sg8
F4.16
sg9
F3.0
ssS'cane'
p1442
(dp1443
g3
F1.8
sg4
F1.93
sg5
F1.95
sg6
F4.2
sg7
F4.0
sg8
F4.27
sg9
F12.0
ssS'engag'
p1444
(dp1445
g3
F1.38
sg4
F2.07
sg5
F2.22
sg6
F6.77
sg7
F8.0
sg8
F6.49
sg9
F47.0
ssS'advantag'
p1446
(dp1447
g3
F1.85
sg4
F2.18
sg5
F2.23
sg6
F4.76
sg7
F6.95
sg8
F6.36
sg9
F73.0
ssS'mucus'
p1448
(dp1449
g3
F2.29
sg4
F2.17
sg5
F1.83
sg6
F3.41
sg7
F3.34
sg8
F4.8
sg9
F2.0
ssS'mystic'
p1450
(dp1451
g3
F2.21
sg4
F2.57
sg5
F1.93
sg6
F4.84
sg7
F6.0
sg8
F5.52
sg9
F3.0
ssS'ink'
p1452
(dp1453
g3
F0.81
sg4
F1.88
sg5
F2.13
sg6
F3.84
sg7
F5.05
sg8
F4.61
sg9
F7.0
ssS'demon'
p1454
(dp1455
g3
F1.56
sg4
F2.68
sg5
F2.89
sg6
F6.76
sg7
F2.11
sg8
F4.89
sg9
F9.0
ssS'lust'
p1456
(dp1457
g3
F1.62
sg4
F1.85
sg5
F2.27
sg6
F6.88
sg7
F7.12
sg8
F5.49
sg9
F5.0
ssS'neurot'
p1458
(dp1459
g3
F2.23
sg4
F2.76
sg5
F2.05
sg6
F5.13
sg7
F4.45
sg8
F4.41
sg9
F10.0
ssS'unit'
p1460
(dp1461
g3
F1.87
sg4
F2.49
sg5
F1.74
sg6
F3.75
sg7
F5.59
sg8
F5.11
sg9
F103.0
ssS'virtu'
p1462
(dp1463
g3
F2.06
sg4
F2.52
sg5
F2.09
sg6
F4.52
sg7
F6.22
sg8
F6.13
sg9
F30.0
ssS'outrag'
p1464
(dp1465
g3
F2.12
sg4
F2.26
sg5
F2.72
sg6
F6.83
sg7
F3.52
sg8
F5.26
sg9
F4.0
ssS'violin'
p1466
(dp1467
g3
F1.98
sg4
F2.26
sg5
F2.01
sg6
F3.49
sg7
F5.43
sg8
F5.18
sg9
F11.0
ssS'anguish'
p1468
(dp1469
g3
F1.56
sg4
F2.69
sg5
F2.37
sg6
F5.33
sg7
F2.12
sg8
F3.45
sg9
F2.0
ssS'fame'
p1470
(dp1471
g3
F1.29
sg4
F2.46
sg5
F2.14
sg6
F6.55
sg7
F7.93
sg8
F6.85
sg9
F18.0
ssS'sever'
p1472
(dp1473
g3
F1.74
sg4
F2.36
sg5
F1.91
sg6
F5.26
sg7
F3.2
sg8
F3.83
sg9
F39.0
ssS'decor'
p1474
(dp1475
g3
F1.3
sg4
F2.39
sg5
F1.86
sg6
F5.14
sg7
F6.93
sg8
F6.05
sg9
F2.0
ssS'terrorist'
p1476
(dp1477
g3
F1.42
sg4
F2.38
sg5
F2.3
sg6
F7.27
sg7
F1.69
sg8
F2.65
sg9
F0.0
ssS'mutat'
p1478
(dp1479
g3
F2.44
sg4
F2.52
sg5
F2.1
sg6
F4.84
sg7
F3.91
sg8
F4.07
sg9
F0.0
ssS'doctor'
p1480
(dp1481
g3
F2.54
sg4
F2.7
sg5
F2.75
sg6
F5.86
sg7
F5.2
sg8
F4.89
sg9
F100.0
ssS'journal'
p1482
(dp1483
g3
F1.49
sg4
F1.96
sg5
F1.42
sg6
F4.05
sg7
F5.14
sg8
F5.26
sg9
F42.0
ssS'parti'
p1484
(dp1485
g3
F1.83
sg4
F2.84
sg5
F2.46
sg6
F6.69
sg7
F7.86
sg8
F5.83
sg9
F216.0
ssS'yellow'
p1486
(dp1487
g3
F1.94
sg4
F2.05
sg5
F1.58
sg6
F4.43
sg7
F5.61
sg8
F5.47
sg9
F55.0
ssS'headlight'
p1488
(dp1489
g3
F1.51
sg4
F2.22
sg5
F1.47
sg6
F3.81
sg7
F5.24
sg8
F4.88
sg9
F0.0
ssS'bowl'
p1490
(dp1491
g3
F1.33
sg4
F2.12
sg5
F1.67
sg6
F3.47
sg7
F5.33
sg8
F4.69
sg9
F23.0
ssS'bunni'
p1492
(dp1493
g3
F1.32
sg4
F2.61
sg5
F2.18
sg6
F4.06
sg7
F7.24
sg8
F4.97
sg9
F1.0
ssS'defiant'
p1494
(dp1495
g3
F2.12
sg4
F2.51
sg5
F2.4
sg6
F6.1
sg7
F4.26
sg8
F5.77
sg9
F3.0
ssS'hurrican'
p1496
(dp1497
g3
F2.12
sg4
F2.06
sg5
F2.18
sg6
F6.83
sg7
F3.34
sg8
F3.07
sg9
F8.0
ssS'haphazard'
p1498
(dp1499
g3
F1.41
sg4
F2.18
sg5
F1.67
sg6
F4.07
sg7
F4.02
sg8
F4.29
sg9
F2.0
ssS'swift'
p1500
(dp1501
g3
F1.76
sg4
F2.53
sg5
F1.85
sg6
F5.39
sg7
F6.46
sg8
F6.29
sg9
F32.0
ssS'corridor'
p1502
(dp1503
g3
F1.14
sg4
F2.41
sg5
F1.48
sg6
F3.63
sg7
F4.88
sg8
F5.0
sg9
F17.0
ssS'success'
p1504
(dp1505
g3
F0.93
sg4
F2.65
sg5
F2.4
sg6
F6.11
sg7
F8.29
sg8
F6.89
sg9
F93.0
ssS'pollut'
p1506
(dp1507
g3
F1.11
sg4
F2.42
sg5
F2.51
sg6
F6.08
sg7
F1.85
sg8
F4.92
sg9
F1.0
ssS'safe'
p1508
(dp1509
g3
F1.9
sg4
F2.72
sg5
F2.06
sg6
F3.86
sg7
F7.07
sg8
F5.81
sg9
F58.0
ssS'slave'
p1510
(dp1511
g3
F1.13
sg4
F2.93
sg5
F2.76
sg6
F6.21
sg7
F1.84
sg8
F3.29
sg9
F30.0
ssS'lie'
p1512
(dp1513
g3
F1.92
sg4
F2.63
sg5
F2.42
sg6
F5.96
sg7
F2.79
sg8
F3.3
sg9
F59.0
ssS'optim'
p1514
(dp1515
g3
F2.24
sg4
F2.58
sg5
F2.06
sg6
F5.34
sg7
F6.95
sg8
F6.61
sg9
F15.0
ssS'ugli'
p1516
(dp1517
g3
F1.27
sg4
F2.23
sg5
F2.33
sg6
F5.38
sg7
F2.43
sg8
F4.26
sg9
F21.0
ssS'foam'
p1518
(dp1519
g3
F2.03
sg4
F2.54
sg5
F1.97
sg6
F5.26
sg7
F6.07
sg8
F5.24
sg9
F37.0
ssS'ankl'
p1520
(dp1521
g3
F1.54
sg4
F2.03
sg5
F1.74
sg6
F4.16
sg7
F5.27
sg8
F4.77
sg9
F8.0
ssS'diploma'
p1522
(dp1523
g3
F1.39
sg4
F2.8
sg5
F2.5
sg6
F5.67
sg7
F8.0
sg8
F6.76
sg9
F0.0
ssS'evil'
p1524
(dp1525
g3
F2.64
sg4
F2.44
sg5
F2.6
sg6
F6.39
sg7
F3.23
sg8
F5.25
sg9
F72.0
ssS'alert'
p1526
(dp1527
g3
F1.76
sg4
F2.53
sg5
F2.24
sg6
F6.85
sg7
F6.2
sg8
F5.96
sg9
F33.0
ssS'delight'
p1528
(dp1529
g3
F1.04
sg4
F2.88
sg5
F2.24
sg6
F5.44
sg7
F8.26
sg8
F5.79
sg9
F29.0
ssS'capabl'
p1530
(dp1531
g3
F1.39
sg4
F2.07
sg5
F1.94
sg6
F5.08
sg7
F7.16
sg8
F6.47
sg9
F66.0
ssS'moment'
p1532
(dp1533
g3
F1.65
sg4
F2.29
sg5
F1.92
sg6
F3.83
sg7
F5.76
sg8
F4.81
sg9
F246.0
ssS'sin'
p1534
(dp1535
g3
F2.15
sg4
F2.43
sg5
F2.73
sg6
F6.29
sg7
F2.93
sg8
F4.24
sg9
F3.0
ssS'vaniti'
p1536
(dp1537
g3
F1.91
sg4
F2.31
sg5
F2.03
sg6
F4.98
sg7
F4.3
sg8
F4.8
sg9
F7.0
ssS'timid'
p1538
(dp1539
g3
F1.55
sg4
F2.09
sg5
F1.91
sg6
F4.11
sg7
F3.86
sg8
F3.09
sg9
F5.0
ssS'tune'
p1540
(dp1541
g3
F1.47
sg4
F2.09
sg5
F1.82
sg6
F4.71
sg7
F6.93
sg8
F5.74
sg9
F10.0
ssS'applaus'
p1542
(dp1543
g3
F1.5
sg4
F2.79
sg5
F2.11
sg6
F5.8
sg7
F7.5
sg8
F6.48
sg9
F14.0
ssS'butter'
p1544
(dp1545
g3
F1.2
sg4
F1.84
sg5
F1.69
sg6
F3.17
sg7
F5.33
sg8
F4.67
sg9
F27.0
ssS'handsom'
p1546
(dp1547
g3
F1.47
sg4
F2.73
sg5
F2.22
sg6
F5.95
sg7
F7.93
sg8
F5.19
sg9
F40.0
ssS'pillow'
p1548
(dp1549
g3
F1.4
sg4
F2.52
sg5
F2.17
sg6
F2.97
sg7
F7.92
sg8
F4.56
sg9
F8.0
ssS'discourag'
p1550
(dp1551
g3
F2.16
sg4
F2.11
sg5
F2.01
sg6
F4.53
sg7
F3.0
sg8
F3.61
sg9
F15.0
ssS'eleg'
p1552
(dp1553
g3
F1.26
sg4
F2.65
sg5
F2.09
sg6
F4.53
sg7
F7.43
sg8
F5.95
sg9
F14.0
ssS'insecur'
p1554
(dp1555
g3
F1.33
sg4
F2.34
sg5
F1.95
sg6
F5.56
sg7
F2.36
sg8
F2.33
sg9
F3.0
ssS'shotgun'
p1556
(dp1557
g3
F2.75
sg4
F1.94
sg5
F2.67
sg6
F6.27
sg7
F4.37
sg8
F5.29
sg9
F8.0
ssS'resent'
p1558
(dp1559
g3
F1.9
sg4
F2.12
sg5
F2.09
sg6
F4.47
sg7
F3.76
sg8
F4.46
sg9
F8.0
ssS'overcast'
p1560
(dp1561
g3
F1.61
sg4
F1.92
sg5
F1.79
sg6
F3.46
sg7
F3.65
sg8
F4.2
sg9
F9.0
ssS'feebl'
p1562
(dp1563
g3
F1.47
sg4
F2.07
sg5
F1.64
sg6
F4.1
sg7
F3.26
sg8
F2.71
sg9
F8.0
ssS'thought'
p1564
(dp1565
g3
F1.03
sg4
F2.3
sg5
F2.11
sg6
F5.72
sg7
F7.65
sg8
F5.61
sg9
F11.0
ssS'idiot'
p1566
(dp1567
g3
F1.91
sg4
F2.47
sg5
F2.13
sg6
F4.21
sg7
F3.16
sg8
F3.18
sg9
F2.0
ssS'cheer'
p1568
(dp1569
g3
F1.17
sg4
F2.45
sg5
F2.06
sg6
F6.12
sg7
F8.1
sg8
F6.0
sg9
F8.0
ssS'grenad'
p1570
(dp1571
g3
F1.88
sg4
F2.52
sg5
F2.5
sg6
F5.7
sg7
F3.6
sg8
F4.29
sg9
F3.0
ssS'elev'
p1572
(dp1573
g3
F1.18
sg4
F1.99
sg5
F1.69
sg6
F4.16
sg7
F5.44
sg8
F4.32
sg9
F12.0
ssS'mother'
p1574
(dp1575
g3
F1.15
sg4
F2.71
sg5
F2.37
sg6
F6.13
sg7
F8.39
sg8
F5.74
sg9
F216.0
ssS'revolv'
p1576
(dp1577
g3
F2.44
sg4
F2.39
sg5
F2.47
sg6
F5.55
sg7
F4.02
sg8
F4.39
sg9
F14.0
ssS'reward'
p1578
(dp1579
g3
F1.67
sg4
F2.62
sg5
F2.14
sg6
F4.95
sg7
F7.53
sg8
F6.0
sg9
F15.0
ssS'tast'
p1580
(dp1581
g3
F1.57
sg4
F2.38
sg5
F1.65
sg6
F5.22
sg7
F6.66
sg8
F5.5
sg9
F59.0
ssS'snake'
p1582
(dp1583
g3
F2.2
sg4
F2.1
sg5
F2.05
sg6
F6.82
sg7
F3.31
sg8
F3.78
sg9
F44.0
ssS'lightbulb'
p1584
(dp1585
g3
F1.28
sg4
F2.02
sg5
F1.56
sg6
F4.1
sg7
F5.61
sg8
F5.82
sg9
F0.0
ssS'outdoor'
p1586
(dp1587
g3
F1.8
sg4
F2.55
sg5
F2.24
sg6
F5.92
sg7
F7.47
sg8
F6.27
sg9
F6.0
ssS'abund'
p1588
(dp1589
g3
F2.01
sg4
F2.63
sg5
F2.16
sg6
F5.51
sg7
F6.59
sg8
F5.8
sg9
F13.0
ssS'execut'
p1590
(dp1591
g3
F2.06
sg4
F2.74
sg5
F2.66
sg6
F5.71
sg7
F2.37
sg8
F4.11
sg9
F15.0
ssS'maggot'
p1592
(dp1593
g3
F1.47
sg4
F2.96
sg5
F2.09
sg6
F5.28
sg7
F2.06
sg8
F4.03
sg9
F2.0
ssS'money'
p1594
(dp1595
g3
F1.4
sg4
F2.66
sg5
F2.33
sg6
F5.7
sg7
F7.59
sg8
F6.25
sg9
F265.0
ssS'waterfal'
p1596
(dp1597
g3
F1.03
sg4
F2.84
sg5
F2.18
sg6
F5.37
sg7
F7.88
sg8
F5.2
sg9
F2.0
ssS'knot'
p1598
(dp1599
g3
F1.36
sg4
F2.15
sg5
F1.65
sg6
F4.07
sg7
F4.64
sg8
F4.67
sg9
F8.0
ssS'slime'
p1600
(dp1601
g3
F1.66
sg4
F2.63
sg5
F1.82
sg6
F5.36
sg7
F2.68
sg8
F4.17
sg9
F1.0
ssS'lavish'
p1602
(dp1603
g3
F2.03
sg4
F2.4
sg5
F1.61
sg6
F4.93
sg7
F6.21
sg8
F5.64
sg9
F3.0
ssS'violent'
p1604
(dp1605
g3
F1.78
sg4
F2.47
sg5
F2.86
sg6
F6.89
sg7
F2.29
sg8
F5.16
sg9
F33.0
ssS'human'
p1606
(dp1607
g3
F1.7
sg4
F1.91
sg5
F1.91
sg6
F4.5
sg7
F6.89
sg8
F5.7
sg9
F5.0
ssS'dignifi'
p1608
(dp1609
g3
F1.26
sg4
F2.29
sg5
F2.4
sg6
F4.12
sg7
F7.1
sg8
F6.12
sg9
F7.0
ssS'shadow'
p1610
(dp1611
g3
F1.23
sg4
F2.26
sg5
F1.82
sg6
F4.3
sg7
F4.35
sg8
F4.19
sg9
F36.0
ssS'concentr'
p1612
(dp1613
g3
F1.28
sg4
F2.13
sg5
F1.75
sg6
F4.65
sg7
F5.2
sg8
F4.97
sg9
F11.0
ssS'cut'
p1614
(dp1615
g3
F2.08
sg4
F2.32
sg5
F1.98
sg6
F5.0
sg7
F3.64
sg8
F4.7
sg9
F192.0
ssS'easi'
p1616
(dp1617
g3
F1.91
sg4
F2.82
sg5
F1.63
sg6
F4.48
sg7
F7.1
sg8
F7.0
sg9
F125.0
ssS'field'
p1618
(dp1619
g3
F1.37
sg4
F2.41
sg5
F1.94
sg6
F4.08
sg7
F6.2
sg8
F5.84
sg9
F274.0
ssS'twilight'
p1620
(dp1621
g3
F1.8
sg4
F2.41
sg5
F1.82
sg6
F4.7
sg7
F7.23
sg8
F5.59
sg9
F4.0
ssS'sky'
p1622
(dp1623
g3
F1.4
sg4
F2.17
sg5
F2.0
sg6
F4.27
sg7
F7.37
sg8
F5.16
sg9
F58.0
ssS'lake'
p1624
(dp1625
g3
F1.54
sg4
F2.44
sg5
F2.1
sg6
F3.95
sg7
F6.82
sg8
F4.9
sg9
F54.0
ssS'bench'
p1626
(dp1627
g3
F1.4
sg4
F2.07
sg5
F1.38
sg6
F3.59
sg7
F4.61
sg8
F4.68
sg9
F35.0
ssS'alimoni'
p1628
(dp1629
g3
F2.0
sg4
F2.29
sg5
F2.3
sg6
F4.3
sg7
F3.95
sg8
F4.63
sg9
F2.0
ssS'color'
p1630
(dp1631
g3
F1.57
sg4
F2.64
sg5
F1.82
sg6
F4.73
sg7
F7.02
sg8
F6.17
sg9
F141.0
ssS'luscious'
p1632
(dp1633
g3
F1.08
sg4
F2.51
sg5
F1.84
sg6
F5.34
sg7
F7.5
sg8
F5.68
sg9
F2.0
ssS'board'
p1634
(dp1635
g3
F1.23
sg4
F2.12
sg5
F1.77
sg6
F3.36
sg7
F4.82
sg8
F4.98
sg9
F239.0
ssS'exercis'
p1636
(dp1637
g3
F1.58
sg4
F2.06
sg5
F2.44
sg6
F6.84
sg7
F7.13
sg8
F5.68
sg9
F58.0
ssS'prison'
p1638
(dp1639
g3
F1.34
sg4
F2.56
sg5
F2.58
sg6
F5.7
sg7
F2.05
sg8
F4.2
sg9
F42.0
ssS'stagnant'
p1640
(dp1641
g3
F1.57
sg4
F1.94
sg5
F1.36
sg6
F3.93
sg7
F4.15
sg8
F4.71
sg9
F5.0
ssS'save'
p1642
(dp1643
g3
F1.93
sg4
F2.19
sg5
F1.79
sg6
F4.95
sg7
F6.45
sg8
F6.0
sg9
F62.0
ssS'cemeteri'
p1644
(dp1645
g3
F1.4
sg4
F2.66
sg5
F2.14
sg6
F4.82
sg7
F2.63
sg8
F4.27
sg9
F15.0
ssS'kick'
p1646
(dp1647
g3
F2.18
sg4
F2.35
sg5
F1.93
sg6
F4.9
sg7
F4.31
sg8
F5.5
sg9
F16.0
ssS'useless'
p1648
(dp1649
g3
F1.42
sg4
F2.58
sg5
F2.62
sg6
F4.87
sg7
F2.13
sg8
F3.92
sg9
F17.0
ssS'wagon'
p1650
(dp1651
g3
F0.97
sg4
F2.04
sg5
F1.2
sg6
F3.98
sg7
F5.37
sg8
F5.05
sg9
F55.0
ssS'insol'
p1652
(dp1653
g3
F1.76
sg4
F2.37
sg5
F2.06
sg6
F5.38
sg7
F4.35
sg8
F4.5
sg9
F2.0
ssS'sissi'
p1654
(dp1655
g3
F1.96
sg4
F2.57
sg5
F2.74
sg6
F5.17
sg7
F3.14
sg8
F3.58
sg9
F0.0
ssS'sapphir'
p1656
(dp1657
g3
F1.88
sg4
F2.72
sg5
F2.24
sg6
F5.0
sg7
F7.0
sg8
F5.55
sg9
F0.0
ssS'moodi'
p1658
(dp1659
g3
F1.58
sg4
F2.38
sg5
F1.71
sg6
F4.18
sg7
F3.2
sg8
F4.39
sg9
F5.0
ssS'dark'
p1660
(dp1661
g3
F2.36
sg4
F2.21
sg5
F2.15
sg6
F4.28
sg7
F4.71
sg8
F4.84
sg9
F185.0
ssS'game'
p1662
(dp1663
g3
F1.97
sg4
F2.37
sg5
F1.65
sg6
F5.89
sg7
F6.98
sg8
F5.7
sg9
F123.0
ssS'boxer'
p1664
(dp1665
g3
F1.8
sg4
F2.26
sg5
F1.64
sg6
F5.12
sg7
F5.51
sg8
F5.1
sg9
F1.0
ssS'burden'
p1666
(dp1667
g3
F1.32
sg4
F2.07
sg5
F2.35
sg6
F5.63
sg7
F2.5
sg8
F5.03
sg9
F4.0
ssS'world'
p1668
(dp1669
g3
F2.03
sg4
F2.39
sg5
F2.47
sg6
F5.32
sg7
F6.5
sg8
F5.26
sg9
F787.0
ssS'roach'
p1670
(dp1671
g3
F1.7
sg4
F2.64
sg5
F2.94
sg6
F6.64
sg7
F2.35
sg8
F4.82
sg9
F2.0
ssS'abduct'
p1672
(dp1673
g3
F2.06
sg4
F2.43
sg5
F2.38
sg6
F5.53
sg7
F2.76
sg8
F3.49
sg9
F1.0
ssS'athlet'
p1674
(dp1675
g3
F2.08
sg4
F2.29
sg5
F2.12
sg6
F6.1
sg7
F6.61
sg8
F6.12
sg9
F9.0
ssS'divorc'
p1676
(dp1677
g3
F1.88
sg4
F2.71
sg5
F2.24
sg6
F6.33
sg7
F2.22
sg8
F3.26
sg9
F29.0
ssS'leisur'
p1678
(dp1679
g3
F1.81
sg4
F2.38
sg5
F1.9
sg6
F3.8
sg7
F6.88
sg8
F5.15
sg9
F5.0
ssS'lost'
p1680
(dp1681
g3
F1.83
sg4
F2.62
sg5
F1.64
sg6
F5.82
sg7
F2.82
sg8
F2.86
sg9
F173.0
ssS'gift'
p1682
(dp1683
g3
F2.24
sg4
F2.76
sg5
F2.54
sg6
F6.14
sg7
F7.77
sg8
F5.52
sg9
F33.0
ssS'nude'
p1684
(dp1685
g3
F1.63
sg4
F2.09
sg5
F2.29
sg6
F6.41
sg7
F6.82
sg8
F5.96
sg9
F20.0
ssS'loser'
p1686
(dp1687
g3
F1.48
sg4
F2.57
sg5
F2.17
sg6
F4.95
sg7
F2.25
sg8
F3.02
sg9
F1.0
ssS'wit'
p1688
(dp1689
g3
F1.9
sg4
F2.44
sg5
F2.01
sg6
F5.42
sg7
F7.32
sg8
F6.38
sg9
F20.0
ssS'mosquito'
p1690
(dp1691
g3
F1.91
sg4
F2.72
sg5
F2.15
sg6
F4.78
sg7
F2.8
sg8
F4.51
sg9
F1.0
ssS'tower'
p1692
(dp1693
g3
F1.75
sg4
F2.28
sg5
F2.14
sg6
F3.95
sg7
F5.46
sg8
F5.78
sg9
F13.0
ssS'rich'
p1694
(dp1695
g3
F1.95
sg4
F2.7
sg5
F2.43
sg6
F6.17
sg7
F7.7
sg8
F6.74
sg9
F2.0
ssS'soft'
p1696
(dp1697
g3
F1.34
sg4
F2.61
sg5
F1.8
sg6
F4.63
sg7
F7.12
sg8
F6.0
sg9
F61.0
ssS'crisi'
p1698
(dp1699
g3
F2.23
sg4
F3.07
sg5
F2.47
sg6
F5.44
sg7
F2.74
sg8
F3.6
sg9
F82.0
ssS'candi'
p1700
(dp1701
g3
F2.09
sg4
F2.4
sg5
F1.91
sg6
F4.58
sg7
F6.54
sg8
F5.33
sg9
F16.0
ssS'mighti'
p1702
(dp1703
g3
F2.19
sg4
F2.38
sg5
F2.11
sg6
F5.61
sg7
F6.54
sg8
F7.23
sg9
F29.0
ssS'incent'
p1704
(dp1705
g3
F1.72
sg4
F2.45
sg5
F2.02
sg6
F5.69
sg7
F7.0
sg8
F5.93
sg9
F12.0
ssS'doll'
p1706
(dp1707
g3
F1.96
sg4
F2.43
sg5
F2.07
sg6
F4.24
sg7
F6.09
sg8
F4.61
sg9
F10.0
ssS'spring'
p1708
(dp1709
g3
F1.51
sg4
F2.51
sg5
F1.98
sg6
F5.67
sg7
F7.76
sg8
F6.26
sg9
F127.0
ssS'crown'
p1710
(dp1711
g3
F1.42
sg4
F2.53
sg5
F2.15
sg6
F4.28
sg7
F6.58
sg8
F6.06
sg9
F19.0
ssS'thief'
p1712
(dp1713
g3
F1.69
sg4
F2.13
sg5
F2.55
sg6
F6.89
sg7
F2.13
sg8
F3.79
sg9
F8.0
ssS'dead'
p1714
(dp1715
g3
F1.76
sg4
F2.73
sg5
F2.32
sg6
F5.73
sg7
F1.94
sg8
F2.84
sg9
F174.0
ssS'rever'
p1716
(dp1717
g3
F1.21
sg4
F1.6
sg5
F1.68
sg6
F4.0
sg7
F5.35
sg8
F4.67
sg9
F3.0
ssS'daylight'
p1718
(dp1719
g3
F2.17
sg4
F2.5
sg5
F2.14
sg6
F4.77
sg7
F6.8
sg8
F5.48
sg9
F15.0
ssS'paradis'
p1720
(dp1721
g3
F0.6
sg4
F3.38
sg5
F2.79
sg6
F5.12
sg7
F8.72
sg8
F6.03
sg9
F12.0
ssS'curious'
p1722
(dp1723
g3
F1.63
sg4
F1.64
sg5
F1.6
sg6
F5.82
sg7
F6.08
sg8
F5.42
sg9
F46.0
ssS'bore'
p1724
(dp1725
g3
F1.35
sg4
F2.31
sg5
F1.7
sg6
F2.83
sg7
F2.95
sg8
F4.11
sg9
F14.0
ssS'radiat'
p1726
(dp1727
g3
F1.05
sg4
F1.94
sg5
F1.38
sg6
F4.02
sg7
F4.67
sg8
F4.81
sg9
F4.0
ssS'intellect'
p1728
(dp1729
g3
F1.96
sg4
F2.5
sg5
F1.98
sg6
F4.75
sg7
F6.82
sg8
F6.3
sg9
F5.0
ssS'scald'
p1730
(dp1731
g3
F2.12
sg4
F2.55
sg5
F2.3
sg6
F5.95
sg7
F2.82
sg8
F3.82
sg9
F1.0
ssS'chocol'
p1732
(dp1733
g3
F1.89
sg4
F2.55
sg5
F1.97
sg6
F5.29
sg7
F6.88
sg8
F5.18
sg9
F9.0
ssS'pet'
p1734
(dp1735
g3
F2.32
sg4
F2.59
sg5
F2.28
sg6
F5.1
sg7
F6.79
sg8
F5.85
sg9
F8.0
ssS'shelter'
p1736
(dp1737
g3
F1.92
sg4
F1.77
sg5
F1.91
sg6
F4.28
sg7
F5.75
sg8
F3.76
sg9
F4.0
ssS'subdu'
p1738
(dp1739
g3
F1.31
sg4
F1.81
sg5
F1.56
sg6
F2.9
sg7
F4.67
sg8
F4.08
sg9
F8.0
ssS'passion'
p1740
(dp1741
g3
F1.27
sg4
F2.57
sg5
F2.24
sg6
F7.26
sg7
F8.03
sg8
F6.13
sg9
F28.0
ssS'market'
p1742
(dp1743
g3
F1.02
sg4
F1.83
sg5
F1.4
sg6
F4.12
sg7
F5.66
sg8
F5.27
sg9
F155.0
ssS'pleasur'
p1744
(dp1745
g3
F0.92
sg4
F2.81
sg5
F2.31
sg6
F5.74
sg7
F8.28
sg8
F6.15
sg9
F62.0
ssS'noos'
p1746
(dp1747
g3
F1.64
sg4
F2.08
sg5
F1.92
sg6
F4.39
sg7
F3.76
sg8
F4.17
sg9
F3.0
ssS'nake'
p1748
(dp1749
g3
F2.42
sg4
F2.8
sg5
F2.05
sg6
F5.8
sg7
F6.34
sg8
F6.0
sg9
F32.0
ssS'leader'
p1750
(dp1751
g3
F1.59
sg4
F2.18
sg5
F1.6
sg6
F6.27
sg7
F7.63
sg8
F7.88
sg9
F74.0
ssS'knife'
p1752
(dp1753
g3
F2.18
sg4
F2.0
sg5
F2.18
sg6
F5.8
sg7
F3.62
sg8
F4.12
sg9
F76.0
ssS'cord'
p1754
(dp1755
g3
F1.09
sg4
F2.09
sg5
F1.22
sg6
F3.54
sg7
F5.1
sg8
F5.0
sg9
F6.0
ssS'patient'
p1756
(dp1757
g3
F1.89
sg4
F2.37
sg5
F2.31
sg6
F4.21
sg7
F5.29
sg8
F4.9
sg9
F86.0
ssS'bold'
p1758
(dp1759
g3
F1.61
sg4
F2.21
sg5
F1.81
sg6
F5.6
sg7
F6.8
sg8
F6.67
sg9
F21.0
ssS'power'
p1760
(dp1761
g3
F1.8
sg4
F2.69
sg5
F2.52
sg6
F5.83
sg7
F6.84
sg8
F7.19
sg9
F63.0
ssS'garbag'
p1762
(dp1763
g3
F1.96
sg4
F2.5
sg5
F2.02
sg6
F5.04
sg7
F2.98
sg8
F4.24
sg9
F7.0
ssS'burn'
p1764
(dp1765
g3
F1.72
sg4
F1.91
sg5
F1.83
sg6
F6.22
sg7
F2.73
sg8
F4.22
sg9
F15.0
ssS'blackmail'
p1766
(dp1767
g3
F1.95
sg4
F2.7
sg5
F2.67
sg6
F6.03
sg7
F2.95
sg8
F3.54
sg9
F2.0
ssS'slaughter'
p1768
(dp1769
g3
F1.18
sg4
F2.42
sg5
F2.75
sg6
F6.77
sg7
F1.64
sg8
F3.82
sg9
F10.0
ssS'cork'
p1770
(dp1771
g3
F1.13
sg4
F2.18
sg5
F1.04
sg6
F3.8
sg7
F5.22
sg8
F4.98
sg9
F9.0
ssS'broken'
p1772
(dp1773
g3
F1.92
sg4
F2.42
sg5
F1.62
sg6
F5.43
sg7
F3.05
sg8
F4.14
sg9
F63.0
ssS'promot'
p1774
(dp1775
g3
F1.15
sg4
F2.58
sg5
F2.28
sg6
F6.44
sg7
F8.2
sg8
F6.79
sg9
F26.0
ssS'slum'
p1776
(dp1777
g3
F1.25
sg4
F2.52
sg5
F2.18
sg6
F4.78
sg7
F2.39
sg8
F3.83
sg9
F8.0
ssS'pasta'
p1778
(dp1779
g3
F1.64
sg4
F2.04
sg5
F1.47
sg6
F4.94
sg7
F6.69
sg8
F5.8
sg9
F0.0
ssS'impot'
p1780
(dp1781
g3
F1.92
sg4
F2.59
sg5
F2.43
sg6
F4.57
sg7
F2.81
sg8
F3.43
sg9
F2.0
ssS'patent'
p1782
(dp1783
g3
F1.08
sg4
F1.84
sg5
F1.79
sg6
F3.5
sg7
F5.29
sg8
F4.9
sg9
F35.0
ssS'reptil'
p1784
(dp1785
g3
F2.0
sg4
F2.19
sg5
F2.02
sg6
F5.18
sg7
F4.77
sg8
F4.77
sg9
F0.0
ssS'ace'
p1786
(dp1787
g3
F1.93
sg4
F2.66
sg5
F2.31
sg6
F5.5
sg7
F6.88
sg8
F6.39
sg9
F15.0
ssS'column'
p1788
(dp1789
g3
F0.85
sg4
F1.91
sg5
F1.58
sg6
F3.62
sg7
F5.17
sg8
F4.81
sg9
F71.0
ssS'freedom'
p1790
(dp1791
g3
F2.04
sg4
F2.72
sg5
F2.29
sg6
F5.52
sg7
F7.58
sg8
F6.76
sg9
F128.0
ssS'materi'
p1792
(dp1793
g3
F1.29
sg4
F2.34
sg5
F1.45
sg6
F4.05
sg7
F5.26
sg8
F5.12
sg9
F174.0
ssS'ach'
p1794
(dp1795
g3
F1.52
sg4
F2.45
sg5
F1.73
sg6
F5.0
sg7
F2.46
sg8
F3.54
sg9
F4.0
ssS'truck'
p1796
(dp1797
g3
F1.88
sg4
F2.17
sg5
F1.83
sg6
F4.84
sg7
F5.47
sg8
F5.33
sg9
F57.0
ssS'victori'
p1798
(dp1799
g3
F1.16
sg4
F2.84
sg5
F2.14
sg6
F6.63
sg7
F8.32
sg8
F7.26
sg9
F61.0
ssS'trophi'
p1800
(dp1801
g3
F1.22
sg4
F2.44
sg5
F2.32
sg6
F5.39
sg7
F7.78
sg8
F6.44
sg9
F8.0
ssS'festiv'
p1802
(dp1803
g3
F2.26
sg4
F2.29
sg5
F2.34
sg6
F6.58
sg7
F7.3
sg8
F5.77
sg9
F2.0
ssS'dinner'
p1804
(dp1805
g3
F1.5
sg4
F2.14
sg5
F1.87
sg6
F5.43
sg7
F7.16
sg8
F6.1
sg9
F91.0
ssS'despair'
p1806
(dp1807
g3
F1.47
sg4
F2.37
sg5
F2.11
sg6
F5.68
sg7
F2.43
sg8
F3.43
sg9
F4.0
ssS'coars'
p1808
(dp1809
g3
F1.42
sg4
F1.84
sg5
F1.43
sg6
F4.21
sg7
F4.55
sg8
F5.0
sg9
F10.0
ssS'industri'
p1810
(dp1811
g3
F1.61
sg4
F2.43
sg5
F2.04
sg6
F4.47
sg7
F5.3
sg8
F4.91
sg9
F171.0
ssS'bandag'
p1812
(dp1813
g3
F1.75
sg4
F2.07
sg5
F1.89
sg6
F3.9
sg7
F4.54
sg8
F4.52
sg9
F4.0
ssS'addict'
p1814
(dp1815
g3
F1.42
sg4
F2.46
sg5
F2.23
sg6
F4.81
sg7
F2.51
sg8
F3.46
sg9
F3.0
ssS'owl'
p1816
(dp1817
g3
F1.31
sg4
F1.87
sg5
F1.62
sg6
F3.98
sg7
F5.8
sg8
F5.82
sg9
F2.0
ssS'miracl'
p1818
(dp1819
g3
F0.71
sg4
F1.67
sg5
F2.58
sg6
F7.65
sg7
F8.6
sg8
F5.35
sg9
F16.0
ssS'dagger'
p1820
(dp1821
g3
F1.77
sg4
F2.64
sg5
F2.27
sg6
F6.14
sg7
F3.38
sg8
F4.52
sg9
F1.0
ssS'irrit'
p1822
(dp1823
g3
F1.67
sg4
F2.15
sg5
F2.05
sg6
F5.76
sg7
F3.11
sg8
F5.03
sg9
F0.0
ssS'unfaith'
p1824
(dp1825
g3
F1.55
sg4
F2.7
sg5
F2.54
sg6
F6.2
sg7
F2.05
sg8
F3.02
sg9
F1.0
ssS'tortur'
p1826
(dp1827
g3
F0.79
sg4
F2.77
sg5
F2.37
sg6
F6.1
sg7
F1.56
sg8
F3.33
sg9
F3.0
ssS'bath'
p1828
(dp1829
g3
F1.45
sg4
F2.31
sg5
F1.87
sg6
F4.16
sg7
F7.33
sg8
F6.41
sg9
F26.0
ssS'champ'
p1830
(dp1831
g3
F1.97
sg4
F2.43
sg5
F2.0
sg6
F6.0
sg7
F7.18
sg8
F6.77
sg9
F1.0
ssS'measl'
p1832
(dp1833
g3
F1.97
sg4
F2.44
sg5
F2.16
sg6
F5.06
sg7
F2.74
sg8
F4.13
sg9
F2.0
ssS'nurs'
p1834
(dp1835
g3
F2.08
sg4
F2.04
sg5
F2.2
sg6
F4.84
sg7
F6.08
sg8
F4.84
sg9
F17.0
ssS'insult'
p1836
(dp1837
g3
F1.33
sg4
F2.46
sg5
F2.05
sg6
F6.0
sg7
F2.29
sg8
F3.62
sg9
F7.0
ssS'stench'
p1838
(dp1839
g3
F1.37
sg4
F2.46
sg5
F1.91
sg6
F4.36
sg7
F2.19
sg8
F4.29
sg9
F1.0
ssS'fabric'
p1840
(dp1841
g3
F1.2
sg4
F1.98
sg5
F1.61
sg6
F4.14
sg7
F5.3
sg8
F5.03
sg9
F15.0
ssS'frustrat'
p1842
(dp1843
g3
F1.64
sg4
F2.76
sg5
F2.12
sg6
F5.61
sg7
F2.48
sg8
F3.5
sg9
F10.0
ssS'museum'
p1844
(dp1845
g3
F1.86
sg4
F2.13
sg5
F1.68
sg6
F3.6
sg7
F5.54
sg8
F5.32
sg9
F32.0
ssS'cuisin'
p1846
(dp1847
g3
F1.48
sg4
F1.99
sg5
F1.19
sg6
F4.39
sg7
F6.64
sg8
F5.41
sg9
F1.0
ssS'lone'
p1848
(dp1849
g3
F1.76
sg4
F2.68
sg5
F2.12
sg6
F4.51
sg7
F2.17
sg8
F2.95
sg9
F25.0
ssS'errand'
p1850
(dp1851
g3
F1.74
sg4
F1.92
sg5
F1.51
sg6
F3.85
sg7
F4.58
sg8
F4.78
sg9
F7.0
ssS'fight'
p1852
(dp1853
g3
F2.63
sg4
F2.19
sg5
F2.69
sg6
F7.15
sg7
F3.76
sg8
F5.27
sg9
F98.0
ssS'virgin'
p1854
(dp1855
g3
F1.76
sg4
F2.06
sg5
F2.48
sg6
F5.51
sg7
F6.45
sg8
F6.24
sg9
F35.0
ssS'fascin'
p1856
(dp1857
g3
F1.68
sg4
F2.73
sg5
F1.89
sg6
F5.83
sg7
F7.34
sg8
F6.15
sg9
F3.0
ssS'starv'
p1858
(dp1859
g3
F1.82
sg4
F2.53
sg5
F2.1
sg6
F5.61
sg7
F2.39
sg8
F3.63
sg9
F6.0
ssS'strong'
p1860
(dp1861
g3
F1.48
sg4
F2.28
sg5
F2.43
sg6
F5.92
sg7
F7.11
sg8
F6.92
sg9
F202.0
ssS'music'
p1862
(dp1863
g3
F1.09
sg4
F3.19
sg5
F2.44
sg6
F5.32
sg7
F8.13
sg8
F6.39
sg9
F216.0
ssS'jealousi'
p1864
(dp1865
g3
F1.83
sg4
F2.66
sg5
F2.41
sg6
F6.36
sg7
F2.51
sg8
F3.8
sg9
F4.0
ssS'untroubl'
p1866
(dp1867
g3
F1.41
sg4
F2.54
sg5
F2.54
sg6
F3.89
sg7
F7.62
sg8
F5.53
sg9
F0.0
ssS'fork'
p1868
(dp1869
g3
F0.97
sg4
F1.94
sg5
F1.52
sg6
F3.96
sg7
F5.29
sg8
F5.74
sg9
F14.0
ssS'headach'
p1870
(dp1871
g3
F1.06
sg4
F2.74
sg5
F1.98
sg6
F5.07
sg7
F2.02
sg8
F3.6
sg9
F5.0
ssS'bottl'
p1872
(dp1873
g3
F1.49
sg4
F2.44
sg5
F1.65
sg6
F4.79
sg7
F6.15
sg8
F4.78
sg9
F76.0
ssS'nourish'
p1874
(dp1875
g3
F1.69
sg4
F2.51
sg5
F1.62
sg6
F4.29
sg7
F6.46
sg8
F5.8
sg9
F0.0
ssS'mischief'
p1876
(dp1877
g3
F2.05
sg4
F1.95
sg5
F1.88
sg6
F5.76
sg7
F5.57
sg8
F5.56
sg9
F5.0
ssS'jug'
p1878
(dp1879
g3
F1.65
sg4
F2.15
sg5
F1.62
sg6
F3.88
sg7
F5.24
sg8
F5.05
sg9
F6.0
ssS'bus'
p1880
(dp1881
g3
F1.57
sg4
F1.8
sg5
F1.75
sg6
F3.55
sg7
F4.51
sg8
F4.84
sg9
F34.0
ssS'heal'
p1882
(dp1883
g3
F1.46
sg4
F2.23
sg5
F1.8
sg6
F4.77
sg7
F7.09
sg8
F5.79
sg9
F2.0
ssS'cabinet'
p1884
(dp1885
g3
F0.31
sg4
F1.85
sg5
F1.66
sg6
F3.43
sg7
F5.05
sg8
F4.73
sg9
F17.0
ssS'glamour'
p1886
(dp1887
g3
F1.6
sg4
F2.23
sg5
F2.49
sg6
F4.68
sg7
F6.76
sg8
F5.76
sg9
F5.0
ssS'cloth'
p1888
(dp1889
g3
F1.85
sg4
F2.88
sg5
F2.14
sg6
F4.78
sg7
F6.54
sg8
F5.33
sg9
F20.0
ssS'sunris'
p1890
(dp1891
g3
F1.35
sg4
F3.05
sg5
F2.41
sg6
F5.06
sg7
F7.86
sg8
F5.29
sg9
F10.0
ssS'whistl'
p1892
(dp1893
g3
F1.21
sg4
F1.99
sg5
F1.87
sg6
F4.69
sg7
F5.81
sg8
F5.27
sg9
F4.0
ssS'grate'
p1894
(dp1895
g3
F0.97
sg4
F2.14
sg5
F1.77
sg6
F4.58
sg7
F7.37
sg8
F6.18
sg9
F25.0
ssS'eat'
p1896
(dp1897
g3
F1.73
sg4
F2.51
sg5
F2.12
sg6
F5.69
sg7
F7.47
sg8
F5.6
sg9
F61.0
ssS'massacr'
p1898
(dp1899
g3
F1.74
sg4
F2.63
sg5
F2.26
sg6
F5.33
sg7
F2.28
sg8
F3.5
sg9
F1.0
ssS'selfish'
p1900
(dp1901
g3
F1.62
sg4
F2.62
sg5
F2.31
sg6
F5.5
sg7
F2.42
sg8
F4.64
sg9
F8.0
ssS'patriot'
p1902
(dp1903
g3
F1.69
sg4
F2.53
sg5
F1.54
sg6
F5.17
sg7
F6.71
sg8
F5.9
sg9
F10.0
ssS'fraud'
p1904
(dp1905
g3
F1.66
sg4
F2.45
sg5
F2.5
sg6
F5.75
sg7
F2.67
sg8
F3.58
sg9
F8.0
ssS'wise'
p1906
(dp1907
g3
F1.23
sg4
F2.64
sg5
F2.39
sg6
F3.91
sg7
F7.52
sg8
F6.7
sg9
F36.0
ssS'dirti'
p1908
(dp1909
g3
F2.05
sg4
F2.29
sg5
F2.12
sg6
F4.88
sg7
F3.08
sg8
F4.7
sg9
F36.0
ssS'skull'
p1910
(dp1911
g3
F1.83
sg4
F1.85
sg5
F1.62
sg6
F4.75
sg7
F4.27
sg8
F4.86
sg9
F3.0
ssS'rage'
p1912
(dp1913
g3
F1.86
sg4
F1.4
sg5
F3.01
sg6
F8.17
sg7
F2.41
sg8
F5.68
sg9
F16.0
ssS'wish'
p1914
(dp1915
g3
F2.0
sg4
F2.62
sg5
F2.09
sg6
F5.16
sg7
F7.09
sg8
F5.28
sg9
F110.0
ssS'smooth'
p1916
(dp1917
g3
F1.78
sg4
F2.57
sg5
F2.09
sg6
F4.91
sg7
F6.58
sg8
F5.09
sg9
F42.0
ssS'triumphant'
p1918
(dp1919
g3
F0.73
sg4
F2.58
sg5
F2.55
sg6
F6.78
sg7
F8.82
sg8
F6.95
sg9
F5.0
ssS'flirt'
p1920
(dp1921
g3
F1.19
sg4
F1.69
sg5
F2.33
sg6
F6.91
sg7
F7.52
sg8
F6.24
sg9
F1.0
ssS'cruel'
p1922
(dp1923
g3
F1.67
sg4
F2.65
sg5
F2.84
sg6
F5.68
sg7
F1.97
sg8
F4.24
sg9
F15.0
ssS'pest'
p1924
(dp1925
g3
F1.82
sg4
F2.15
sg5
F2.13
sg6
F5.62
sg7
F3.13
sg8
F5.29
sg9
F4.0
ssS'glori'
p1926
(dp1927
g3
F1.68
sg4
F2.71
sg5
F2.23
sg6
F6.02
sg7
F7.55
sg8
F6.85
sg9
F21.0
ssS'cake'
p1928
(dp1929
g3
F1.27
sg4
F2.37
sg5
F2.05
sg6
F5.0
sg7
F7.26
sg8
F5.16
sg9
F9.0
ssS'ennui'
p1930
(dp1931
g3
F1.76
sg4
F2.33
sg5
F1.8
sg6
F4.4
sg7
F5.09
sg8
F4.67
sg9
F0.0
ssS'grass'
p1932
(dp1933
g3
F1.44
sg4
F2.11
sg5
F1.36
sg6
F4.14
sg7
F6.12
sg8
F5.44
sg9
F53.0
ssS'thorn'
p1934
(dp1935
g3
F1.76
sg4
F2.14
sg5
F1.5
sg6
F5.14
sg7
F3.64
sg8
F4.45
sg9
F3.0
ssS'malic'
p1936
(dp1937
g3
F1.84
sg4
F2.75
sg5
F2.72
sg6
F5.86
sg7
F2.69
sg8
F4.74
sg9
F2.0
ssS'mutil'
p1938
(dp1939
g3
F1.45
sg4
F2.94
sg5
F2.71
sg6
F6.41
sg7
F1.82
sg8
F3.41
sg9
F3.0
ssS'garter'
p1940
(dp1941
g3
F1.59
sg4
F2.15
sg5
F1.62
sg6
F5.47
sg7
F6.22
sg8
F5.82
sg9
F2.0
ssS'circus'
p1942
(dp1943
g3
F1.84
sg4
F2.59
sg5
F2.25
sg6
F5.97
sg7
F7.3
sg8
F5.39
sg9
F7.0
ssS'chao'
p1944
(dp1945
g3
F2.36
sg4
F2.06
sg5
F1.95
sg6
F6.67
sg7
F4.17
sg8
F3.86
sg9
F17.0
ssS'muscular'
p1946
(dp1947
g3
F1.63
sg4
F2.2
sg5
F2.28
sg6
F5.47
sg7
F6.82
sg8
F6.58
sg9
F16.0
ssS'pig'
p1948
(dp1949
g3
F1.97
sg4
F2.42
sg5
F1.88
sg6
F4.2
sg7
F5.07
sg8
F5.34
sg9
F8.0
ssS'home'
p1950
(dp1951
g3
F1.63
sg4
F2.94
sg5
F2.3
sg6
F4.21
sg7
F7.91
sg8
F5.9
sg9
F547.0
ssS'desir'
p1952
(dp1953
g3
F1.39
sg4
F1.76
sg5
F1.83
sg6
F7.35
sg7
F7.69
sg8
F6.49
sg9
F79.0
ssS'ship'
p1954
(dp1955
g3
F1.4
sg4
F2.29
sg5
F2.31
sg6
F4.38
sg7
F5.55
sg8
F5.12
sg9
F83.0
ssS'hospit'
p1956
(dp1957
g3
F2.45
sg4
F2.54
sg5
F2.16
sg6
F5.98
sg7
F5.04
sg8
F4.69
sg9
F110.0
ssS'mold'
p1958
(dp1959
g3
F1.7
sg4
F1.98
sg5
F1.83
sg6
F4.07
sg7
F3.55
sg8
F4.33
sg9
F45.0
ssS'girl'
p1960
(dp1961
g3
F1.64
sg4
F2.69
sg5
F2.16
sg6
F4.29
sg7
F6.87
sg8
F5.8
sg9
F220.0
ssS'treasur'
p1962
(dp1963
g3
F0.9
sg4
F2.3
sg5
F2.42
sg6
F6.75
sg7
F8.27
sg8
F6.36
sg9
F4.0
ssS'loyal'
p1964
(dp1965
g3
F1.9
sg4
F2.42
sg5
F2.23
sg6
F5.16
sg7
F7.55
sg8
F6.91
sg9
F18.0
ssS'surpris'
p1966
(dp1967
g3
F1.56
sg4
F2.09
sg5
F2.19
sg6
F7.47
sg7
F7.47
sg8
F6.11
sg9
F58.0
ssS'swamp'
p1968
(dp1969
g3
F2.24
sg4
F2.36
sg5
F1.63
sg6
F4.86
sg7
F5.14
sg8
F5.29
sg9
F5.0
ssS'glacier'
p1970
(dp1971
g3
F1.25
sg4
F2.29
sg5
F2.12
sg6
F4.24
sg7
F5.5
sg8
F4.92
sg9
F1.0
ssS'puppi'
p1972
(dp1973
g3
F1.9
sg4
F2.78
sg5
F2.39
sg6
F5.85
sg7
F7.56
sg8
F5.51
sg9
F2.0
ssS'excel'
p1974
(dp1975
g3
F0.96
sg4
F2.67
sg5
F2.32
sg6
F5.54
sg7
F8.38
sg8
F7.28
sg9
F15.0
ssS'detail'
p1976
(dp1977
g3
F1.58
sg4
F2.24
sg5
F1.6
sg6
F4.1
sg7
F5.55
sg8
F5.21
sg9
F72.0
ssS'repent'
p1978
(dp1979
g3
F1.86
sg4
F1.98
sg5
F2.06
sg6
F4.69
sg7
F5.53
sg8
F5.42
sg9
F1.0
ssS'flood'
p1980
(dp1981
g3
F1.66
sg4
F2.02
sg5
F2.14
sg6
F6.0
sg7
F3.19
sg8
F3.24
sg9
F19.0
ssS'book'
p1982
(dp1983
g3
F1.54
sg4
F2.49
sg5
F2.05
sg6
F4.17
sg7
F5.72
sg8
F5.3
sg9
F193.0
ssS'astronaut'
p1984
(dp1985
g3
F1.6
sg4
F2.11
sg5
F1.95
sg6
F5.28
sg7
F6.66
sg8
F5.2
sg9
F2.0
ssS'sick'
p1986
(dp1987
g3
F1.71
sg4
F2.67
sg5
F2.5
sg6
F5.61
sg7
F2.25
sg8
F3.84
sg9
F6.0
ssS'squar'
p1988
(dp1989
g3
F1.02
sg4
F1.76
sg5
F1.45
sg6
F3.18
sg7
F4.74
sg8
F4.51
sg9
F143.0
ssS'trash'
p1990
(dp1991
g3
F1.45
sg4
F2.16
sg5
F1.85
sg6
F4.16
sg7
F2.67
sg8
F5.24
sg9
F2.0
ssS'nice'
p1992
(dp1993
g3
F2.44
sg4
F2.69
sg5
F2.2
sg6
F4.38
sg7
F6.55
sg8
F5.58
sg9
F75.0
ssS'scapegoat'
p1994
(dp1995
g3
F1.65
sg4
F2.13
sg5
F1.7
sg6
F4.53
sg7
F3.67
sg8
F3.52
sg9
F1.0
ssS'cellar'
p1996
(dp1997
g3
F1.68
sg4
F2.33
sg5
F1.61
sg6
F4.39
sg7
F4.32
sg8
F4.66
sg9
F26.0
ssS'star'
p1998
(dp1999
g3
F1.66
sg4
F2.44
sg5
F2.15
sg6
F5.83
sg7
F7.27
sg8
F4.68
sg9
F25.0
ssS'salad'
p2000
(dp2001
g3
F1.62
sg4
F2.29
sg5
F1.68
sg6
F3.81
sg7
F5.74
sg8
F5.47
sg9
F9.0
ssS'handicap'
p2002
(dp2003
g3
F1.69
sg4
F2.27
sg5
F2.24
sg6
F3.81
sg7
F3.29
sg8
F4.0
sg9
F6.0
ssS'devot'
p2004
(dp2005
g3
F1.37
sg4
F2.21
sg5
F2.36
sg6
F5.23
sg7
F7.41
sg8
F6.18
sg9
F51.0
ssS'insect'
p2006
(dp2007
g3
F2.16
sg4
F2.46
sg5
F2.47
sg6
F4.07
sg7
F4.07
sg8
F4.56
sg9
F14.0
ssS'humor'
p2008
(dp2009
g3
F0.81
sg4
F2.91
sg5
F2.14
sg6
F5.5
sg7
F8.56
sg8
F6.08
sg9
F47.0
ssS'desert'
p2010
(dp2011
g3
F1.8
sg4
F2.55
sg5
F2.29
sg6
F5.5
sg7
F2.45
sg8
F3.77
sg9
F0.0
ssS'cliff'
p2012
(dp2013
g3
F2.08
sg4
F2.15
sg5
F2.11
sg6
F6.25
sg7
F4.67
sg8
F4.35
sg9
F11.0
ssS'mantel'
p2014
(dp2015
g3
F1.4
sg4
F2.23
sg5
F1.61
sg6
F3.27
sg7
F4.93
sg8
F4.95
sg9
F3.0
ssS'bullet'
p2016
(dp2017
g3
F2.06
sg4
F2.48
sg5
F2.61
sg6
F5.33
sg7
F3.29
sg8
F3.9
sg9
F28.0
ssS'wife'
p2018
(dp2019
g3
F1.97
sg4
F2.22
sg5
F1.68
sg6
F4.93
sg7
F6.33
sg8
F5.57
sg9
F228.0
ssS'invest'
p2020
(dp2021
g3
F2.1
sg4
F2.42
sg5
F1.95
sg6
F5.12
sg7
F5.93
sg8
F5.88
sg9
F3.0
ssS'humbl'
p2022
(dp2023
g3
F1.42
sg4
F2.33
sg5
F2.25
sg6
F3.74
sg7
F5.86
sg8
F4.76
sg9
F18.0
ssS'jewel'
p2024
(dp2025
g3
F1.72
sg4
F2.54
sg5
F2.19
sg6
F5.38
sg7
F7.0
sg8
F5.59
sg9
F1.0
ssS'scream'
p2026
(dp2027
g3
F2.07
sg4
F1.96
sg5
F2.21
sg6
F7.04
sg7
F3.88
sg8
F4.75
sg9
F13.0
ssS'impair'
p2028
(dp2029
g3
F1.86
sg4
F2.14
sg5
F2.18
sg6
F4.04
sg7
F3.18
sg8
F4.09
sg9
F4.0
ssS'ignor'
p2030
(dp2031
g3
F2.25
sg4
F2.49
sg5
F2.38
sg6
F4.39
sg7
F3.07
sg8
F4.41
sg9
F16.0
ssS'time'
p2032
(dp2033
g3
F2.02
sg4
F2.75
sg5
F2.24
sg6
F4.64
sg7
F5.31
sg8
F4.63
sg9
F1599.0
ssS'serious'
p2034
(dp2035
g3
F1.59
sg4
F1.87
sg5
F1.65
sg6
F4.0
sg7
F5.08
sg8
F5.12
sg9
F116.0
ss.